(lp0
(lp1
(lp2
F806720.0812986344
aF3478406.3663387615
aa(lp3
F806826.5535043208
aF3478458.5861138385
aa(lp4
F806921.803694821
aF3478495.6278545894
aa(lp5
F806983.9809025079
aF3478528.7008374035
aa(lp6
F807044.835190882
aF3478588.2322064675
aa(lp7
F807088.4915281972
aF3478639.8260596544
aa(lp8
F807130.8249461958
aF3478694.065751465
aa(lp9
F807228.7209753208
aF3478785.3471840285
aa(lp10
F807326.0933488859
aF3478897.7402039524
aa(lp11
F807415.39040248
aF3478980.422660986
aa(lp12
F807527.8385440418
aF3479056.490521455
aa(lp13
F807590.6772113862
aF3479129.2510836422
aa(lp14
F807590.6772113862
aF3479175.5532595813
aa(lp15
F807593.9845096674
aF3479264.8503131773
aa(lp16
F807610.5210010745
aF3479453.3663152065
aa(lp17
F807660.1304752929
aF3479509.5903859865
aa(lp18
F807785.8078099806
aF3479661.7261069287
aa(lp19
F807967.709215451
aF3479873.3931969274
aa(lp20
F808201.2044741074
aF3480108.872834554
aa(lp21
F808359.9547916083
aF3480251.7481203005
aa(lp22
F808523.9967863606
aF3480357.5816653036
aa(lp23
F808746.2472308595
aF3480492.5194351804
aa(lp24
F808891.7683552364
aF3480556.019562179
aa(lp25
F809008.1852547359
aF3480593.06130293
aa(lp26
F809230.4356992375
aF3480659.2072685547
aa(lp27
F809556.2266285969
aF3480737.5240918547
aa(lp28
F809911.8273398001
aF3480735.4074209575
aa(lp29
F810083.2776827002
aF3480712.1240410563
aa(lp30
F810267.4280510005
aF3480729.0574082546
aa(lp31
F810476.978470101
aF3480718.4740537573
aa(lp32
F810582.8120151032
aF3480703.657357456
aa(lp33
F810722.512294502
aF3480750.224117255
aa(lp34
F810832.5791813042
aF3480784.090851659
aa(lp35
F810934.1793845035
aF3480830.6576114576
aa(lp36
F811027.3129041037
aF3480879.341042159
aa(lp37
F811050.5962840039
aF3480858.174333155
aa(lp38
F811086.5796893053
aF3480858.174333155
aa(lp39
F811111.9797401046
aF3480898.3910802566
aa(lp40
F811135.263120004
aF3480949.1911818553
aa(lp41
F811192.4132343046
aF3480995.7579416577
aa(lp42
F811243.2133359062
aF3480991.5245998595
aa(lp43
F811304.5967920041
aF3480983.0579162594
aa(lp44
F811393.4969698051
aF3481025.391334258
aa(lp45
F811467.580451305
aF3481097.358144855
aa(lp46
F811653.8474905081
aF3481237.0584242567
aa(lp47
F811740.6309974063
aF3481304.7918930613
aa(lp48
F811755.4476937084
aF3481393.6920708586
aa(lp49
F811795.664440807
aF3481402.1587544587
aa(lp50
F811867.6312514078
aF3481423.3254634626
aa(lp51
F812032.7315816088
aF3481527.0423375573
aa(lp52
F812161.8485065103
aF3481643.4592370577
aa(lp53
F812261.3320388105
aF3481736.592756659
aa(lp54
F812362.9322420098
aF3481766.226149259
aa(lp55
F812428.5490399105
aF3481808.5595672633
aa(lp56
F812445.4824071107
aF3481793.7428709604
aa(lp57
F812504.7491923086
aF3481821.2595926616
aa(lp58
F812551.3159521101
aF3481859.359668862
aa(lp59
F812896.3333088113
aF3482071.026758861
aa(lp60
F812957.716764912
aF3482138.7602276634
aa(lp61
F812991.5834993115
aF3482198.0270128623
aa(lp62
F813021.2168919137
aF3482282.6938488614
aa(lp63
F813156.6838295124
aF3482358.894001264
aa(lp64
F813330.2508433126
aF3482443.5608372614
aa(lp65
F813469.9511227142
aF3482485.8942552656
aa(lp66
F813624.4680984151
aF3482697.5613452643
aa(lp67
F813658.3348328145
aF3482742.0114341658
aa(lp68
F813721.8349598153
aF3482797.0448775645
aa(lp69
F813743.0016688146
aF3482856.3116627634
aa(lp70
F813819.2018212155
aF3482917.695118865
aa(lp71
F813931.3853789177
aF3482979.078574965
aa(lp72
F814024.5188985178
aF3483021.4119929653
aa(lp73
F814085.9023546167
aF3483101.845487168
aa(lp74
F814109.1857345179
aF3483178.045639565
aa(lp75
F814293.3361028181
aF3483296.5792099666
aa(lp76
F814445.7364076199
aF3483389.712729566
aa(lp77
F814596.0200415179
aF3483468.029552866
aa(lp78
F814670.1035230216
aF3483518.82965447
aa(lp79
F814733.6036500195
aF3483533.6463507656
aa(lp80
F814806.0467115752
aF3483584.640480537
aa(lp81
F814864.2551613245
aF3483584.640480537
aa(lp82
F815007.1304470748
aF3483616.3905440383
aa(lp83
F815065.338896824
aF3483658.7239620313
aa(lp84
F815118.2556693256
aF3483685.182348285
aa(lp85
F815171.1724418243
aF3483727.5157662835
aa(lp86
F815202.9225053256
aF3483817.474279536
aa(lp87
F815292.8810185753
aF3483865.0993747823
aa(lp88
F815351.0894683274
aF3483918.0161472894
aa(lp89
F815335.2144365767
aF3484007.9746605363
aa(lp90
F815398.7145635774
aF3484055.599755788
aa(lp91
F815515.1314630769
aF3484119.099882787
aa(lp92
F815536.2981720762
aF3484071.4747875333
aa(lp93
F815562.756558327
aF3484076.7664647885
aa(lp94
F816012.549124579
aF3484383.6837452874
aa(lp95
F816240.0912463292
aF3483986.807951536
aa(lp96
F816287.7163415793
aF3483970.9329197854
aa(lp97
F816816.8840665808
aF3484426.0171632916
aa(lp98
F817092.0512835821
aF3484664.1426395383
aa(lp99
F817277.2599873329
aF3484801.726248039
aa(lp100
F817451.8853365853
aF3484965.7682427894
aa(lp101
F817785.261003335
aF3485240.9354597926
aa(lp102
F817949.3029980874
aF3485468.477581544
aa(lp103
F818134.511701839
aF3485706.6030577905
aa(lp104
F818224.4702150878
aF3485828.3116345443
aa(lp105
F818420.2622733386
aF3486050.562079046
aa(lp106
F818510.2207865883
aF3486024.1036927924
aa(lp107
F818647.8043950899
aF3485939.436856795
aa(lp108
F818774.8046490913
aF3485902.395116044
aa(lp109
F818870.0548395915
aF3485854.7700207923
aa(lp110
F819002.3467708398
aF3485817.7282800414
aa(lp111
F819055.2635433404
aF3485817.7282800414
aa(lp112
F819208.7221835908
aF3485738.3531212937
aa(lp113
F819341.0141148428
aF3485706.6030577905
aa(lp114
F819589.7229455933
aF3485611.3528672904
aa(lp115
F820076.5572525961
aF3485436.7275180425
aa(lp116
F820187.682474847
aF3485394.394100042
aa(lp117
F820214.1408610949
aF3485420.852486292
aa(lp118
F820298.807697095
aF3485637.811253544
aa(lp119
F820394.0578875979
aF3485860.061698042
aa(lp120
F820462.8496918473
aF3486045.270401798
aa(lp121
F820505.183109846
aF3486140.5205922984
aa(lp122
F820547.5165278474
aF3486151.1039467957
aa(lp123
F820727.4335543476
aF3486129.9372377954
aa(lp124
F820822.6837448478
aF3486129.9372377954
aa(lp125
F820933.8089670986
aF3486098.187174294
aa(lp126
F821044.9341893494
aF3486050.562079046
aa(lp127
F821156.0594116012
aF3485987.0619520433
aa(lp128
F821304.2263745992
aF3485934.1451795474
aa(lp129
F821447.1016603522
aF3485854.7700207923
aa(lp130
F821579.3935915995
aF3485775.3948620427
aa(lp131
F821711.6855228525
aF3485733.061444044
aa(lp132
F821806.9357133526
aF3485674.852994295
aa(lp133
F821933.9359673522
aF3485600.769512793
aa(lp134
F822018.6028033523
aF3485584.8944810424
aa(lp135
F822087.3946076017
aF3485531.9777085427
aa(lp136
F822182.6447981047
aF3485399.6857772917
aa(lp137
F822246.1449251026
aF3485367.9357137904
aa(lp138
F822351.9784701057
aF3485304.4355867915
aa(lp139
F822468.3953696052
aF3485230.3521052916
aa(lp140
F822574.2289146045
aF3485098.0601740405
aa(lp141
F822838.8127771057
aF3484844.0596660413
aa(lp142
F822934.0629676059
aF3484780.5595390387
aa(lp143
F822939.3546448564
aF3484632.3925760426
aa(lp144
F822971.1047083586
aF3484436.600517789
aa(lp145
F823018.7298036087
aF3484304.308586538
aa(lp146
F823166.8967666067
aF3484092.641496539
aa(lp147
F823235.688570857
aF3483970.9329197854
aa(lp148
F823330.9387613591
aF3483965.6412425376
aa(lp149
F823405.0222428599
aF3483997.391306039
aa(lp150
F823494.9807561086
aF3483992.0996287856
aa(lp151
F823600.8143011089
aF3484018.5580150373
aa(lp152
F823680.1894598603
aF3483992.0996287856
aa(lp153
F823659.022750861
aF3483843.9326657895
aa(lp154
F823516.1474651108
aF3483743.390798034
aa(lp155
F823415.6055973591
aF3483664.0156392865
aa(lp156
F823405.0222428599
aF3483600.5155122876
aa(lp157
F823410.3139201086
aF3483521.1403535325
aa(lp158
F823473.8140471093
aF3483394.1400995366
aa(lp159
F823547.8975286102
aF3483325.3482952844
aa(lp160
F823643.1477191104
aF3483320.056618035
aa(lp161
F823717.2312006103
aF3483335.9316497874
aa(lp162
F823775.4396503605
aF3483341.223327035
aa(lp163
F823844.2314546099
aF3483309.473263534
aa(lp164
F823844.2314546099
aF3483240.6814592816
aa(lp165
F823722.522877859
aF3483166.5979777854
aa(lp166
F823637.8560418589
aF3483071.3477872815
aa(lp167
F823616.6893328596
aF3482991.972628532
aa(lp168
F823643.1477191104
aF3482764.4305067807
aa(lp169
F823669.6061053602
aF3482573.9301257804
aa(lp170
F823664.3144281097
aF3482446.929871779
aa(lp171
F823558.4808831094
aF3482446.929871779
aa(lp172
F823362.6888248585
aF3482446.929871779
aa(lp173
F823267.4386343583
aF3482446.929871779
aa(lp174
F823256.8552798582
aF3482404.5964537803
aa(lp175
F823251.5636026077
aF3482272.3045225292
aa(lp176
F823251.5636026077
aF3482081.804141529
aa(lp177
F823235.688570857
aF3481822.5119562782
aa(lp178
F823230.3968936084
aF3481584.386480024
aa(lp179
F823225.1052163597
aF3481346.2610037774
aa(lp180
F823320.355406859
aF3481335.6776492745
aa(lp181
F823484.3974016085
aF3481319.802617524
aa(lp182
F823616.6893328596
aF3481288.052554028
aa(lp183
F823674.8977826089
aF3481150.4689455237
aa(lp184
F823727.8145551104
aF3481139.8855910264
aa(lp185
F823775.4396503605
aF3481060.5104322713
aa(lp186
F823754.2729413612
aF3480986.426950777
aa(lp187
F823696.0644916082
aF3480986.426950777
aa(lp188
F823664.3144281097
aF3480907.051792022
aa(lp189
F823669.6061053602
aF3480822.3849560246
aa(lp190
F823611.3976556109
aF3480838.2599877752
aa(lp191
F823606.1059783595
aF3480769.468183523
aa(lp192
F823632.5643646102
aF3480727.1347655244
aa(lp193
F823616.6893328596
aF3480695.384702023
aa(lp194
F823579.6475921087
aF3480557.8010935243
aa(lp195
F823569.0642376095
aF3480451.9675485212
aa(lp196
F823606.1059783595
aF3480324.9672945198
aa(lp197
F823606.1059783595
aF3480171.5086542703
aa(lp198
F823547.8975286102
aF3479954.549887022
aa(lp199
F823468.5223698579
aF3479790.5078922696
aa(lp200
F823405.0222428599
aF3479610.590865772
aa(lp201
F823336.2304386077
aF3479409.507130269
aa(lp202
F823267.4386343583
aF3479256.0484900195
aa(lp203
F823145.7300576074
aF3479060.256431766
aa(lp204
F823071.6465761065
aF3478959.714564016
aa(lp205
F823055.7715443587
aF3478811.5476010162
aa(lp206
F823029.3131581079
aF3478689.839024268
aa(lp207
F822955.2296766071
aF3478509.921997765
aa(lp208
F822923.4796131086
aF3478419.9634845126
aa(lp209
F822986.9797401065
aF3478303.546585014
aa(lp210
F823013.4381263573
aF3478139.5045902617
aa(lp211
F822944.6463221079
aF3477996.6293045133
aa(lp212
F822976.3963856073
aF3477880.212405015
aa(lp213
F822949.9379993565
aF3477763.795505509
aa(lp214
F822870.562840607
aF3477541.545061007
aa(lp215
F822807.0627136063
aF3477382.79474351
aa(lp216
F822759.4376183562
aF3477187.00268526
aa(lp217
F822701.229168606
aF3477007.085658757
aa(lp218
F822568.9372373559
aF3476768.9601825103
aa(lp219
F822484.2704013558
aF3476647.2516057566
aa(lp220
F822341.3951156028
aF3476679.001669258
aa(lp221
F822235.5615706034
aF3476620.793219503
aa(lp222
F822203.811507104
aF3476440.8761930056
aa(lp223
F822076.8112531025
aF3476493.792965507
aa(lp224
F821896.8942266023
aF3476552.0014152564
aa(lp225
F821669.352104851
aF3476589.0431560073
aa(lp226
F821505.3101101015
aF3476567.876447007
aa(lp227
F821404.7682423508
aF3476393.2510977536
aa(lp228
F821288.3513428513
aF3476165.708976008
aa(lp229
F821214.2678613504
aF3476012.250335753
aa(lp230
F821261.8929566005
aF3475774.1248595007
aa(lp231
F821441.8099831007
aF3475662.9996372536
aa(lp232
F821600.5603006016
aF3475573.041124003
aa(lp233
F821526.4768191017
aF3475398.4157747477
aa(lp234
F821335.9764381014
aF3475250.2488117516
aa(lp235
F821182.5177978491
aF3475112.665203249
aa(lp236
F820568.6832368467
aF3474721.081086751
aa(lp237
F820420.5162738459
aF3474631.1225734986
aa(lp238
F820325.2660833457
aF3474504.122319497
aa(lp239
F820129.474025094
aF3474498.8306422494
aa(lp240
F819954.8486758452
aF3474472.372255996
aa(lp241
F819769.6399720935
aF3474377.1220654957
aa(lp242
F819568.556236594
aF3474318.9136157464
aa(lp243
F819415.0975963417
aF3474281.8718749955
aa(lp244
F819298.6806968413
aF3474170.7466527447
aa(lp245
F819161.0970883407
aF3474223.6634252463
aa(lp246
F818997.0550935911
aF3474218.3717479967
aa(lp247
F818804.0852632066
aF3474183.0938996635
aa(lp248
F818749.051819806
aF3474214.8439631592
aa(lp249
F818694.0183764072
aF3474282.5774319638
aa(lp250
F818651.6849584058
aF3474238.1273430623
aa(lp251
F818617.8182240063
aF3474178.8605578635
aa(lp252
F818535.2680589063
aF3474195.7939250637
aa(lp253
F818442.1345393062
aF3474219.077304965
aa(lp254
F818346.884348806
aF3474204.260608662
aa(lp255
F818262.217512806
aF3474214.8439631592
aa(lp256
F818190.2507022051
aF3474286.810773764
aa(lp257
F818133.1005879035
aF3474339.7275462635
aa(lp258
F818006.1003339048
aF3474339.7275462635
aa(lp259
F817908.7334725019
aF3474314.327495465
aa(lp260
F817817.7166238017
aF3474314.327495465
aa(lp261
F817703.4163952023
aF3474382.060964264
aa(lp262
F817584.8828248
aF3474418.0443695653
aa(lp263
F817521.382697802
aF3474475.1944838613
aa(lp264
F817447.2992163012
aF3474523.877914563
aa(lp265
F817392.2657729005
aF3474587.37804156
aa(lp266
F817297.5341667719
aF3474627.0867876485
aa(lp267
F817170.5339127705
aF3474674.7118829004
aa(lp268
F816940.3459523953
aF3474734.2432519626
aa(lp269
F816789.5331507679
aF3474734.2432519626
aa(lp270
F816658.5641388306
aF3474674.7118829004
aa(lp271
F816567.2827062681
aF3474523.899081273
aa(lp272
F816539.5014007045
aF3474325.4611843973
aa(lp273
F816539.5014007045
aF3474174.6483827736
aa(lp274
F816587.1264959546
aF3474039.710612897
aa(lp275
F816622.8453173935
aF3473956.366696207
aa(lp276
F816630.7828332689
aF3473626.959787395
aa(lp277
F816579.1889800811
aF3473519.803323079
aa(lp278
F816491.8763054544
aF3473448.3656802047
aa(lp279
F816472.032515768
aF3473305.4903944563
aa(lp280
F816420.4386625802
aF3473238.021509519
aa(lp281
F816404.5636308296
aF3473126.896287268
aa(lp282
F816483.938789581
aF3473039.583612643
aa(lp283
F816527.5951268934
aF3472920.520874517
aa(lp284
F816539.5014007045
aF3472773.676830828
aa(lp285
F816452.1887260797
aF3472388.707310889
aa(lp286
F816222.0007657045
aF3472019.6128226984
aa(lp287
F816063.2504482036
aF3471916.425116323
aa(lp288
F815920.3751624515
aF3471674.330882136
aa(lp289
F815908.4688886404
aF3471563.205659885
aa(lp290
F815805.2811822649
aF3470511.4848064426
aa(lp291
F815741.7810552642
aF3470384.484552441
aa(lp292
F815630.6558330134
aF3470217.796719067
aa(lp293
F815531.4368845755
aF3470098.7339809407
aa(lp294
F815340.9365035752
aF3469936.014905503
aa(lp295
F815198.0612178231
aF3469832.8271991275
aa(lp296
F815102.8110273229
aF3469765.358314188
aa(lp297
F814932.1544360109
aF3469785.2021038737
aa(lp298
F814840.8730034465
aF3469793.139619751
aa(lp299
F814713.8727494469
aF3469721.7019768767
aa(lp300
F814547.1849160707
aF3469717.7332189362
aa(lp301
F814459.8722414458
aF3469809.0146515016
aa(lp302
F814467.8097573211
aF3469955.8586951885
aa(lp303
F814563.0599478213
aF3470190.0154135004
aa(lp304
F814551.1536740083
aF3470340.8282151297
aa(lp305
F814574.9662216343
aF3470463.8597111907
aa(lp306
F814551.1536740083
aF3470535.297354065
aa(lp307
F814463.8409993835
aF3470515.4535643794
aa(lp308
F814352.7157771327
aF3470245.5780246295
aa(lp309
F814297.1531660073
aF3470110.6402547527
aa(lp310
F814221.7467651935
aF3469765.358314188
aa(lp311
F814178.0904278811
aF3469570.8891752474
aa(lp312
F814055.0589318192
aF3469511.3578061853
aa(lp313
F813939.9649516307
aF3469503.42029031
aa(lp314
F813872.4960666923
aF3469431.9826474357
aa(lp315
F813868.5273087546
aF3469356.576246621
aa(lp316
F813797.0896658804
aF3469285.1386037488
aa(lp317
F813674.0581698166
aF3469193.857171187
aa(lp318
F813511.339094378
aF3469130.3570441846
aa(lp319
F813412.1201459402
aF3469094.6382227484
aa(lp320
F813312.9011975024
aF3469078.7631909978
aa(lp321
F813253.3698284393
aF3469062.8881592453
aa(lp322
F813209.7134911269
aF3469066.8569171857
aa(lp323
F813150.1821220638
aF3469114.482012434
aa(lp324
F813078.7444791896
aF3469074.794433061
aa(lp325
F813019.2131101266
aF3469090.669464808
aa(lp326
F812916.0254037511
aF3469102.5757386237
aa(lp327
F812828.7127291244
aF3469066.8569171857
aa(lp328
F812757.2750862502
aF3468983.5130004976
aa(lp329
F812697.7437171871
aF3468896.2003258727
aa(lp330
F812634.2435901864
aF3468864.4502623715
aa(lp331
F812546.9309155615
aF3468844.606472684
aa(lp332
F812475.4932726854
aF3468781.106345685
aa(lp333
F812408.0243877489
aF3468713.6374607477
aa(lp334
F812336.5867448729
aF3468662.043607559
aa(lp335
F812281.0241337474
aF3468622.3560281824
aa(lp336
F812277.0553758098
aF3468546.949627368
aa(lp337
F812312.7741972469
aF3468523.1370797474
aa(lp338
F812411.9931456866
aF3468507.2620479967
aa(lp339
F812467.5557568101
aF3468507.2620479967
aa(lp340
F812580.8637959268
aF3468470.5510370713
aa(lp341
F812628.4888911769
aF3468446.738489451
aa(lp342
F812723.739081677
aF3468454.676005326
aa(lp343
F812885.1352378018
aF3468446.7384894453
aa(lp344
F812997.5833793664
aF3468466.5822791364
aa(lp345
F813235.7088556169
aF3468453.3530860133
aa(lp346
F813348.1569971805
aF3468459.96768257
aa(lp347
F813460.6051387424
aF3468380.5925238207
aa(lp348
F813526.7511043679
aF3468301.217365071
aa(lp349
F813711.9598081196
aF3468261.5297856946
aa(lp350
F813883.9393187445
aF3468367.363330696
aa(lp351
F814016.2312499974
aF3468433.5092963222
aa(lp352
F814148.5231812457
aF3468526.1136482004
aa(lp353
F814254.3567262478
aF3468612.1034035105
aa(lp354
F814432.9508334342
aF3468651.7909828834
aa(lp355
F814638.0033268742
aF3468665.020176012
aa(lp356
F814776.9098546868
aF3468579.0304206964
aa(lp357
F814770.2952581253
aF3468473.1968756933
aa(lp358
F814809.9828375
aF3468373.9779272582
aa(lp359
F814962.1185584385
aF3468433.5092963222
aa(lp360
F815008.4207343757
aF3468506.2698585093
aa(lp361
F815127.4834725019
aF3468486.426068824
aa(lp362
F815187.0148415649
aF3468387.207120383
aa(lp363
F815299.4629831268
aF3468327.6757513247
aa(lp364
F815365.6089487514
aF3468373.9779272582
aa(lp365
F815325.9213693775
aF3468473.1968756933
aa(lp366
F815253.1608071895
aF3468565.8012275714
aa(lp367
F815213.4732278157
aF3468651.7909828834
aa(lp368
F815259.775403752
aF3468764.239124447
aa(lp369
F815358.9943521898
aF3468876.6872660127
aa(lp370
F815451.5987040652
aF3468929.6040385123
aa(lp371
F815550.817652503
aF3468916.3748453893
aa(lp372
F815650.0366009409
aF3468969.291617885
aa(lp373
F815729.4117596932
aF3469028.8229869492
aa(lp374
F815921.2350600036
aF3468995.750004139
aa(lp375
F816119.672956882
aF3468942.8332316373
aa(lp376
F816304.8816606309
aF3468936.218635075
aa(lp377
F816417.3298021955
aF3469015.5937938243
aa(lp378
F816417.3298021955
aF3469121.4273388274
aa(lp379
F816503.3195575066
aF3469207.4170941375
aa(lp380
F816628.9968921952
aF3469286.792252887
aa(lp381
F816972.9559134478
aF3469333.094428826
aa(lp382
F817171.3938103234
aF3469266.9484632015
aa(lp383
F817270.6127587603
aF3469167.7295147665
aa(lp384
F817396.290093449
aF3469200.802497575
aa(lp385
F817634.4155696994
aF3469180.9587078895
aa(lp386
F817779.9366940763
aF3469101.5835491363
aa(lp387
F817991.6037840759
aF3469008.979197262
aa(lp388
F818097.4373290753
aF3468817.1558969487
aa(lp389
F818044.5205565775
aF3468665.020176012
aa(lp390
F817918.8432218889
aF3468519.4990516324
aa(lp391
F817879.1556425141
aF3468314.446558196
aa(lp392
F817859.3118528258
aF3468155.696240697
aa(lp393
F818004.8329772027
aF3467937.4145541303
aa(lp394
F818209.8854706399
aF3467891.112378197
aa(lp395
F818487.698526267
aF3467811.7372194473
aa(lp396
F818719.2094059559
aF3467798.5080263186
aa(lp397
F818844.8867406435
aF3467738.9766572546
aa(lp398
F818997.0224615829
aF3467679.4452881925
aa(lp399
F818997.0224615829
aF3467566.9971466325
aa(lp400
F818798.5845647044
aF3467414.8614256904
aa(lp401
F818553.8444918925
aF3467381.78844288
aa(lp402
F818388.4795778291
aF3467434.7052153815
aa(lp403
F818097.4373290753
aF3467434.7052153815
aa(lp404
F817846.0826597018
aF3467414.8614256904
aa(lp405
F817707.1761318892
aF3467309.027880693
aa(lp406
F817634.4155696994
aF3467057.6732113175
aa(lp407
F817535.1966212615
aF3466865.8499110024
aa(lp408
F817297.0711450111
aF3466700.484996937
aa(lp409
F817092.0186515739
aF3466508.661696624
aa(lp410
F816906.8099478222
aF3466349.911379125
aa(lp411
F816781.1326131336
aF3466237.4632375613
aa(lp412
F816714.986647509
aF3466039.0253406856
aa(lp413
F816714.986647509
aF3465794.285267871
aa(lp414
F816834.0493856352
aF3465576.0035813097
aa(lp415
F816999.4142996976
aF3465397.4094741195
aa(lp416
F817125.0916343862
aF3465284.961332556
aa(lp417
F817065.5602653231
aF3465126.211015057
aa(lp418
F816933.268334073
aF3464835.1687663086
aa(lp419
F816913.4245443847
aF3464570.5849038027
aa(lp420
F816926.6537375087
aF3464358.917813802
aa(lp421
F816827.4347890709
aF3464306.0010413025
aa(lp422
F816655.455278446
aF3464312.615637863
aa(lp423
F816503.3195575066
aF3464398.6053931806
aa(lp424
F816377.6422228208
aF3464391.990796618
aa(lp425
F816179.2043259423
aF3464398.6053931806
aa(lp426
F816013.8394118799
aF3464352.3032172415
aa(lp427
F815908.0058668796
aF3464405.219989741
aa(lp428
F815822.0161115658
aF3464524.282727869
aa(lp429
F815630.1928112525
aF3464683.0330453664
aa(lp430
F815438.3695109393
aF3464636.730869433
aa(lp431
F815332.535965939
aF3464689.647641929
aa(lp432
F815220.0878243772
aF3464729.3352213055
aa(lp433
F815167.1710518766
aF3464802.0957834926
aa(lp434
F815087.7958931271
aF3464868.241749119
aa(lp435
F815015.0353309372
aF3464960.846100997
aa(lp436
F814849.6704168739
aF3465007.1482769307
aa(lp437
F814750.451468437
aF3464987.304487245
aa(lp438
F814677.690906249
aF3464954.2315044347
aa(lp439
F814684.3055028114
aF3464855.012555994
aa(lp440
F814723.9930821862
aF3464769.022800684
aa(lp441
F814717.3784856237
aF3464689.647641929
aa(lp442
F814757.0660649985
aF3464537.5119209923
aa(lp443
F814836.4412237499
aF3464491.209745053
aa(lp444
F814889.3579962514
aF3464411.8345863037
aa(lp445
F814869.5142065631
aF3464239.855075676
aa(lp446
F814829.8266271884
aF3464127.406934118
aa(lp447
F814816.5974340616
aF3463995.1150028612
aa(lp448
F814790.1390478108
aF3463889.2814578637
aa(lp449
F814929.0455756262
aF3463790.062509425
aa(lp450
F815028.264524064
aF3463651.1559816115
aa(lp451
F815054.7229103148
aF3463512.2494538
aa(lp452
F815107.6396828126
aF3463406.4159088023
aa(lp453
F815213.4732278157
aF3463413.0305053648
aa(lp454
F815258.893457544
aF3463487.113986859
aa(lp455
F815608.1441560453
aF3463497.697341362
aa(lp456
F815745.7277645469
aF3463423.613859862
aa(lp457
F815925.6447910471
aF3463434.197214363
aa(lp458
F816105.5618175473
aF3463360.113732863
aa(lp459
F816423.0624525491
aF3463275.4468968604
aa(lp460
F816835.8132780511
aF3463370.6970873605
aa(lp461
F817068.6470770529
aF3463413.0305053648
aa(lp462
F817481.3979025548
aF3463656.447658865
aa(lp463
F817767.1484740553
aF3463730.5311403666
aa(lp464
F818010.5656275563
aF3463741.114494864
aa(lp465
F818179.8992995573
aF3463836.364685364
aa(lp466
F818338.6496170582
aF3463952.7815848626
aa(lp467
F818465.6498710569
aF3464058.6151298657
aa(lp468
F818666.7336065592
aF3464143.2819658685
aa(lp469
F818878.4006965589
aF3463973.948293863
aa(lp470
F819058.31772306
aF3463846.948039865
aa(lp471
F819259.4014585624
aF3463741.114494864
aa(lp472
F819407.5684215603
aF3463730.5311403666
aa(lp473
F819619.2355115628
aF3463635.280949861
aa(lp474
F819788.5691835638
aF3463455.3639233634
aa(lp475
F819894.4027285632
aF3463222.5301243644
aa(lp476
F820074.3197550634
aF3463127.2799338587
aa(lp477
F820275.4034905657
aF3463233.1134788617
aa(lp478
F820539.9873530669
aF3463360.113732863
aa(lp479
F820741.0710885664
aF3463413.0305053648
aa(lp480
F820889.2380515682
aF3463444.7805688605
aa(lp481
F820973.9048875682
aF3463455.3639233634
aa(lp482
F821016.2383055696
aF3463571.780822862
aa(lp483
F821037.4050145689
aF3463656.447658865
aa(lp484
F821090.3217870705
aF3463719.9477858637
aa(lp485
F821312.5722315703
aF3463868.1147488654
aa(lp486
F821661.8229300706
aF3464090.365193367
aa(lp487
F821862.9066655729
aF3464058.6151298657
aa(lp488
F822106.3238190748
aF3463783.4479128625
aa(lp489
F822233.3240730735
aF3463624.6975953635
aa(lp490
F822392.0743905744
aF3463413.0305053648
aa(lp491
F822529.657999076
aF3463286.0302513633
aa(lp492
F822540.2413535761
aF3463053.1964523587
aa(lp493
F822466.1578720752
aF3462830.946007861
aa(lp494
F822593.1581260776
aF3462566.362145355
aa(lp495
F822709.5750255771
aF3462365.278409859
aa(lp496
F822868.325343078
aF3462280.6115738563
aa(lp497
F823005.9089515796
aF3462058.3611293547
aa(lp498
F823069.4090785775
aF3461783.193912355
aa(lp499
F822952.992179078
aF3461306.9429598544
aa(lp500
F822773.0751525778
aF3460978.8589703515
aa(lp501
F822593.1581260776
aF3460703.6917533483
aa(lp502
F822381.4910360752
aF3460449.691245349
aa(lp503
F822169.8239460755
aF3460333.2743458506
aa(lp504
F821915.8234380744
aF3460248.6075098477
aa(lp505
F821778.2398295728
aF3460290.9409278464
aa(lp506
F821640.6562210713
aF3460365.0244093463
aa(lp507
F821460.739194571
aF3460365.0244093463
aa(lp508
F821217.3220410701
aF3460365.0244093463
aa(lp509
F821047.9883690691
aF3460280.357573349
aa(lp510
F820889.2380515682
aF3460216.8574463464
aa(lp511
F820614.0708345678
aF3460163.9406738486
aa(lp512
F820476.4872260662
aF3459973.44029285
aa(lp513
F820328.3202630645
aF3459857.023393344
aa(lp514
F820211.903363565
aF3459708.8564303443
aa(lp515
F820158.9865910644
aF3459444.272567842
aa(lp516
F820084.9031095663
aF3459243.1888323445
aa(lp517
F819894.4027285632
aF3459211.438768843
aa(lp518
F819767.4024745645
aF3459052.688451346
aa(lp519
F819650.9855750622
aF3458735.1878163423
aa(lp520
F819788.5691835638
aF3458375.353763338
aa(lp521
F820053.1530460641
aF3458269.5202183407
aa(lp522
F820465.903871566
aF3458142.519964339
aa(lp523
F820666.9876070684
aF3458047.269773839
aa(lp524
F820825.7379245674
aF3458089.6031918377
aa(lp525
F820973.9048875682
aF3458131.936609842
aa(lp526
F821100.9051415706
aF3458153.1033188365
aa(lp527
F821280.8221680708
aF3458153.1033188365
aa(lp528
F821439.5724855717
aF3458121.353255339
aa(lp529
F821608.9061575718
aF3458163.6866733376
aa(lp530
F821799.4065385722
aF3458311.8536363393
aa(lp531
F821947.5735015739
aF3458343.6036998406
aa(lp532
F822074.5737555725
aF3458258.9368638378
aa(lp533
F822148.6572370734
aF3458079.0198373403
aa(lp534
F822360.3243270759
aF3458174.2700278405
aa(lp535
F822487.3245810745
aF3458491.7706628423
aa(lp536
F822804.8252160773
aF3458523.520726338
aa(lp537
F823217.5760415792
aF3458460.020599341
aa(lp538
F823524.4933220809
aF3458343.6036998406
aa(lp539
F823820.8272480806
aF3458216.603445839
aa(lp540
F824085.4111105846
aF3458089.6031918377
aa(lp541
F824508.745290583
aF3458004.9363558386
aa(lp542
F824868.5793435872
aF3458184.853382338
aa(lp543
F825249.5801055897
aF3458343.6036998406
aa(lp544
F825535.3306770902
aF3458470.6039538383
aa(lp545
F825736.4144125897
aF3458544.687435344
aa(lp546
F826075.0817565937
aF3458671.6876893397
aa(lp547
F826149.1652380917
aF3458830.4380068425
aa(lp548
F826318.4989100927
aF3458925.6881973427
aa(lp549
F826593.666127095
aF3459042.105096843
aa(lp550
F826762.9997990932
aF3459042.105096843
aa(lp551
F827144.0005610967
aF3459105.605223842
aa(lp552
F827620.2515135994
aF3459147.9386418443
aa(lp553
F827884.8353760997
aF3459232.6054778434
aa(lp554
F828160.0025931001
aF3459349.022377342
aa(lp555
F828361.0863286024
aF3459349.022377342
aa(lp556
F828581.195380983
aF3459345.8153002188
aa(lp557
F829259.1915286426
aF3459279.6693345997
aa(lp558
F829573.3848653631
aF3459263.1328431927
aa(lp559
F829672.603813801
aF3459031.621963501
aa(lp560
F829837.9687278643
aF3459048.158454908
aa(lp561
F830334.0634700535
aF3458982.0124892835
aa(lp562
F830582.1108411485
aF3459048.158454908
aa(lp563
F830813.6217208365
aF3459114.3044205345
aa(lp564
F830962.4501434946
aF3459130.8409119416
aa(lp565
F831111.2785661528
aF3458932.403015066
aa(lp566
F831375.862428654
aF3458601.6731869355
aa(lp567
F831508.1543599041
aF3458155.1879189666
aa(lp568
F831607.373308342
aF3457675.6296681818
aa(lp569
F831607.373308342
aF3457394.5093142744
aa(lp570
F831607.373308342
aF3456981.097029116
aa(lp571
F831607.373308342
aF3456683.4401838034
aa(lp572
F831392.3989200583
aF3456319.6373728625
aa(lp573
F831359.325937246
aF3455972.3710533306
aa(lp574
F831177.4245317783
aF3455476.276311144
aa(lp575
F830912.8406692743
aF3455013.2545517664
aa(lp576
F830714.4027723996
aF3454583.305775201
aa(lp577
F830515.9648755239
aF3454318.7219127007
aa(lp578
F830152.1620645849
aF3453921.8461189494
aa(lp579
F829837.9687278643
aF3453425.7513767574
aa(lp580
F829365.6264006048
aF3452938.743353078
aa(lp581
F829026.9590566037
aF3452430.742337076
aa(lp582
F828794.125257602
aF3451816.9077760726
aa(lp583
F828434.2912045987
aF3451584.073977072
aa(lp584
F828243.7908235984
aF3451181.906506067
aa(lp585
F827735.7898075962
aF3450441.071691066
aa(lp586
F827227.7887915941
aF3450017.7375110667
aa(lp587
F826825.6213205922
aF3449742.5702940654
aa(lp588
F826804.454611592
aF3449340.402823059
aa(lp589
F826973.788283593
aF3449128.73573306
aa(lp590
F827143.121955594
aF3448684.2348440606
aa(lp591
F827418.2891725944
aF3448239.7339550573
aa(lp592
F827820.4566435963
aF3447901.066611057
aa(lp593
F827947.4568975987
aF3447350.7321770545
aa(lp594
F827820.4566435963
aF3446906.231288051
aa(lp595
F827566.4561355952
aF3446461.7303990535
aa(lp596
F827248.9555005934
aF3446228.896600049
aa(lp597
F826762.1211935906
aF3445763.2290020455
aa(lp598
F826423.4538495895
aF3445424.5616580453
aa(lp599
F825957.7862515887
aF3445361.0615310464
aa(lp600
F825513.2853625854
aF3445551.5619120467
aa(lp601
F825301.6182725858
aF3445911.395965047
aa(lp602
F825026.4510555854
aF3446440.5636900477
aa(lp603
F824687.7837115834
aF3446948.56470605
aa(lp604
F824454.9499125825
aF3447329.565468056
aa(lp605
F823735.2818065779
aF3447456.565722052
aa(lp606
F823121.4472455764
aF3447266.0653410517
aa(lp607
F822592.279520575
aF3446758.0643250514
aa(lp608
F822274.7788855722
aF3446017.2295100484
aa(lp609
F822126.6119225714
aF3445255.2279860433
aa(lp610
F821809.1112875696
aF3444556.726589041
aa(lp611
F821195.2767265672
aF3444091.058991039
aa(lp612
F820539.1087475643
aF3443921.725319037
aa(lp613
F819988.7743135607
aF3443710.0582290385
aa(lp614
F819755.9405145589
aF3443075.056959035
aa(lp615
F820052.2744405614
aF3442228.3885990307
aa(lp616
F819798.2739325603
aF3441678.05416503
aa(lp617
F819078.6058265567
aF3441254.719985025
aa(lp618
F818443.6045565549
aF3440408.0516250227
aa(lp619
F817766.2698685527
aF3440619.718715027
aa(lp620
F817618.102905551
aF3439942.384027019
aa(lp621
F817427.6025245506
aF3439222.7159210164
aa(lp622
F817554.6027785502
aF3438693.548196016
aa(lp623
F818062.6037945524
aF3438312.5474340096
aa(lp624
F818908.470385273
aF3437677.3858101517
aa(lp625
F819225.9710202748
aF3437359.88517515
aa(lp626
F819924.4724172764
aF3436597.8836511485
aa(lp627
F820474.8068512799
aF3436153.3827621453
aa(lp628
F821152.1415392831
aF3435497.2147831433
aa(lp629
F821638.9758462859
aF3435497.2147831433
aa(lp630
F821638.9758462859
aF3436089.8826351482
aa(lp631
F821490.8088832842
aF3436619.050360149
aa(lp632
F821596.6424282845
aF3437063.551249152
aa(lp633
F822422.1440792885
aF3437254.0516301524
aa(lp634
F823247.6457302924
aF3437148.218085151
aa(lp635
F823776.8134552957
aF3436597.8836511485
aa(lp636
F824136.6475082971
aF3436005.2157991454
aa(lp637
F824411.8147252975
aF3435603.0483281445
aa(lp638
F824729.3153602993
aF3434904.546931142
aa(lp639
F825237.3163763015
aF3434608.2130051404
aa(lp640
F825512.4835933018
aF3434311.879079137
aa(lp641
F826362.115292564
aF3433724.291237302
aa(lp642
F826558.9656862644
aF3433775.091338901
aa(lp643
F826711.3659910653
aF3433730.6412499994
aa(lp644
F826920.9164101649
aF3433641.7410722002
aa(lp645
F827181.2669308688
aF3433597.290983299
aa(lp646
F827409.8673880706
aF3433565.540919803
aa(lp647
F827543.2176547693
aF3433660.7911103033
aa(lp648
F827644.8178579696
aF3433870.341529401
aa(lp649
F827771.818111971
aF3433997.3417834025
aa(lp650
F827962.3184929714
aF3433990.991770705
aa(lp651
F828190.9189501731
aF3434010.041808801
aa(lp652
F828413.1693946719
aF3434124.342037404
aa(lp653
F828546.5196613735
aF3434232.2922533043
aa(lp654
F828654.4698772738
aF3434232.2922533043
aa(lp655
F828717.9700042745
aF3434143.3920755014
aa(lp656
F828876.7203217754
aF3434219.592227904
aa(lp657
F828978.3205249757
aF3434397.3925835043
aa(lp658
F829092.6207535751
aF3434498.9927867074
aa(lp659
F829225.9710202767
aF3434391.042570807
aa(lp660
F829460.9214901784
aF3434492.6427740045
aa(lp661
F829587.9217441799
aF3434410.0926089045
aa(lp662
F829848.2722648811
aF3434378.342545403
aa(lp663
F829784.7721378794
aF3434264.0423168056
aa(lp664
F829518.0716044763
aF3434098.9419866037
aa(lp665
F829264.0710964752
aF3434010.041808801
aa(lp666
F829105.3207789743
aF3433876.691542102
aa(lp667
F829010.0705884742
aF3433679.8411484007
aa(lp668
F828819.5702074748
aF3433438.5406658016
aa(lp669
F828533.8196359742
aF3433228.9902466983
aa(lp670
F828222.6690136725
aF3432835.2894592993
aa(lp671
F827867.0683024712
aF3432574.938938599
aa(lp672
F827594.0177563708
aF3432428.8886464946
aa(lp673
F827219.3670070674
aF3432232.038252797
aa(lp674
F826654.2158767646
aF3431933.5876558926
aa(lp675
F826374.8153179642
aF3431793.887376491
aa(lp676
F826190.6649496639
aF3431616.087020891
aa(lp677
F825841.4142511627
aF3431387.48656369
aa(lp678
F825479.4635272622
aF3431171.5861318912
aa(lp679
F825034.962638258
aF3430917.5856238883
aa(lp680
F824571.4117111573
aF3430663.585115889
aa(lp681
F824050.7106697559
aF3430371.4845316876
aa(lp682
F823396.6593616521
aF3430092.0839728843
aa(lp683
F823206.1589806499
aF3429977.783744281
aa(lp684
F822926.7584218495
aF3429819.033426784
aa(lp685
F822723.5580154499
aF3429749.1832870822
aa(lp686
F822393.3573550452
aF3429590.432969585
aa(lp687
F822069.5067073461
aF3429457.0827028807
aa(lp688
F821682.1559326435
aF3429272.9323345814
aa(lp689
F821415.4553992432
aF3429139.5820678826
aa(lp690
F821072.554713442
aF3429044.3318773787
aa(lp691
F820863.0042943396
aF3428930.031648781
aa(lp692
F820621.7038117377
aF3428803.0313947797
aa(lp693
F820335.9532402381
aF3428663.331115378
aa(lp694
F820031.1526306383
aF3428504.580797879
aa(lp695
F819415.201398734
aF3428275.9803406745
aa(lp696
F819135.8008399336
aF3428199.7801882774
aa(lp697
F818945.3004589304
aF3428098.1799850743
aa(lp698
F818799.2501668315
aF3428047.3798834756
aa(lp699
F818640.4998493306
aF3428047.3798834756
aa(lp700
F818449.9994683312
aF3427939.4296675753
aa(lp701
F818246.7990619289
aF3427850.5294897743
aa(lp702
F818030.8986301292
aF3427787.0293627754
aa(lp703
F817795.9481602274
aF3427787.0293627754
aa(lp704
F817370.4973093262
aF3427647.329083374
aa(lp705
F816875.1963187233
aF3427418.728626175
aa(lp706
F816564.0456964215
aF3427348.878486473
aa(lp707
F816290.9951503212
aF3427228.2282451745
aa(lp708
F815986.1945407186
aF3427177.428143576
aa(lp709
F815528.9936263179
aF3427056.7779022716
aa(lp710
F815351.1932707168
aF3426999.62778797
aa(lp711
F815243.2430548146
aF3426967.8777244743
aa(lp712
F815122.5928135151
aF3427012.32781337
aa(lp713
F815014.6425976129
aF3426986.92776257
aa(lp714
F814792.3921531141
aF3426980.5777498726
aa(lp715
F814639.9918483132
aF3426910.7276101727
aa(lp716
F814443.1414546128
aF3426847.2274831682
aa(lp717
F814170.0909085125
aF3426866.2775212713
aa(lp718
F813808.1401846092
aF3426834.52745777
aa(lp719
F813522.3896131087
aF3426758.327305371
aa(lp720
F813350.9392702077
aF3426720.2272291724
aa(lp721
F813084.2387368046
aF3426644.0270767696
aa(lp722
F812957.2384828059
aF3426663.077114871
aa(lp723
F812728.6380256042
aF3426618.6270259693
aa(lp724
F812436.5374414036
aF3426555.1268989705
aa(lp725
F812309.5371874021
aF3426510.676810071
aa(lp726
F812074.5867175031
aF3426536.0768608693
aa(lp727
F811788.8361460008
aF3426536.0768608693
aa(lp728
F811344.3352569994
aF3426440.826670369
aa(lp729
F810976.0345203988
aF3426383.6765560675
aa(lp730
F810715.6839996949
aF3426332.876454469
aa(lp731
F810518.8336059954
aF3426301.1263909675
aa(lp732
F810353.7332757944
aF3426320.1764290705
aa(lp733
F810220.3830090929
aF3426269.376327466
aa(lp734
F810067.9827042939
aF3426237.6262639686
aa(lp735
F809934.6324375924
aF3426263.026314769
aa(lp736
F809788.5821454916
aF3426282.07635287
aa(lp737
F809528.2316247905
aF3426288.4263655674
aa(lp738
F809242.48105329
aF3426256.6763020717
aa(lp739
F808899.5803674888
aF3426224.9262385704
aa(lp740
F808753.530075388
aF3426199.5261877663
aa(lp741
F808620.1798086865
aF3426199.5261877663
aa(lp742
F808347.1292625852
aF3426224.9262385704
aa(lp743
F807978.8285259847
aF3426250.326289369
aa(lp744
F807445.4274591813
aF3426263.026314769
aa(lp745
F807293.0271543823
aF3426282.07635287
aa(lp746
F807108.8767860793
aF3426313.8264163677
aa(lp747
F806905.6763796797
aF3426364.626517972
aa(lp748
F806632.6258335793
aF3426415.4266195707
aa(lp749
F806378.6253255783
aF3426453.5266957693
aa(lp750
F806219.8750080774
aF3426472.5767338704
aa(lp751
F806023.0246143751
aF3426523.376835469
aa(lp752
F805762.6740936739
aF3426523.376835469
aa(lp753
F805483.2735348735
aF3426478.9267465677
aa(lp754
F805311.8231919724
aF3426358.276505269
aa(lp755
F805076.8727220716
aF3426345.576479869
aa(lp756
F805026.0726204729
aF3426402.7265941706
aa(lp757
F804981.6225315714
aF3426485.2767592706
aa(lp758
F804753.0220743697
aF3426599.576987872
aa(lp759
F804372.021312369
aF3426682.127152974
aa(lp760
F803959.270486867
aF3426751.977292668
aa(lp761
F803565.5696994644
aF3426809.1274069697
aa(lp762
F803273.4691152647
aF3426853.577495871
aa(lp763
F802873.418315162
aF3426891.6775720697
aa(lp764
F802359.0672864607
aF3426936.127660971
aa(lp765
F801889.1663466571
aF3426993.2777752727
aa(lp766
F801444.6654576566
aF3427075.8279403728
aa(lp767
F801158.9148861561
aF3427094.8779784758
aa(lp768
F800828.7142257523
aF3427171.078130873
aa(lp769
F800612.8137939526
aF3427183.778156273
aa(lp770
F800384.2133367509
aF3427259.97830867
aa(lp771
F800155.6128795492
aF3427336.178461075
aa(lp772
F799914.3123969473
aF3427412.378613472
aa(lp773
F799825.41221915
aF3427590.1789690778
aa(lp774
F799717.4620032478
aF3427799.7293881755
aa(lp775
F799571.4117111489
aF3427767.9793246724
aa(lp776
F799349.1612666473
aF3427793.3793754783
aa(lp777
F799184.0609364463
aF3427723.529235771
aa(lp778
F799018.9606062453
aF3427704.4791976754
aa(lp779
F798803.0601744438
aF3427850.5294897743
aa(lp780
F798663.359895044
aF3427933.0796548743
aa(lp781
F798447.4594632424
aF3428079.129946977
aa(lp782
F798149.0088663427
aF3428256.930302579
aa(lp783
F797920.408409141
aF3428422.030632779
aa(lp784
F797698.1579646394
aF3428574.4309375808
aa(lp785
F797507.657583639
aF3428707.7812042795
aa(lp786
F797355.2572788382
aF3428796.6813820824
aa(lp787
F796929.8064279361
aF3429037.9818646815
aa(lp788
F796656.7558818357
aF3429107.8320043813
aa(lp789
F796466.2555008354
aF3429107.8320043813
aa(lp790
F796390.0553484345
aF3429164.982118683
aa(lp791
F796498.0055643348
aF3429190.3821694814
aa(lp792
F796510.705589734
aF3429342.782474283
aa(lp793
F796402.7553738346
aF3429526.932842586
aa(lp794
F796390.0553484345
aF3429590.432969585
aa(lp795
F796358.3052849332
aF3429723.783236284
aa(lp796
F796224.9550182344
aF3429723.783236284
aa(lp797
F796142.4048531307
aF3429787.283363281
aa(lp798
F796059.8546880335
aF3429952.3836934827
aa(lp799
F796028.1046245312
aF3430079.383947484
aa(lp800
F795932.8544340311
aF3430041.2838712856
aa(lp801
F795863.0042943312
aF3429984.133756984
aa(lp802
F795748.7040657308
aF3430085.733960187
aa(lp803
F795228.0030243294
aF3430612.785014285
aa(lp804
F794993.0525544276
aF3430898.5355857853
aa(lp805
F794637.4518432273
aF3431273.1863350887
aa(lp806
F794183.4259351743
aF3431725.0955722444
aa(lp807
F793924.1337499227
aF3431979.0960802473
aa(lp808
F793484.9245381728
aF3432296.5967152435
aa(lp809
F793215.048998421
aF3432460.638709996
aa(lp810
F793051.0070036687
aF3432513.5554824974
aa(lp811
F792966.3401676686
aF3432550.5972232483
aa(lp812
F792886.9650089191
aF3432677.59747725
aa(lp813
F792664.7145644175
aF3432947.473016998
aa(lp814
F792437.1724426663
aF3433127.390043497
aa(lp815
F792172.588580166
aF3433365.5155197494
aa(lp816
F791791.5878181634
aF3433714.7662182525
aa(lp817
F791632.8375006625
aF3433952.891694501
aa(lp818
F791394.7120244121
aF3434212.1838797536
aa(lp819
F791156.5865481617
aF3434413.267615255
aa(lp820
F791024.2946169116
aF3434497.934451252
aa(lp821
F790770.2941089105
aF3434582.601287255
aa(lp822
F790447.5017966572
aF3434725.476573009
aa(lp823
F789934.2091034064
aF3434889.518567756
aa(lp824
F789341.5412514042
aF3435069.435594259
aa(lp825
F789082.2490661517
aF3435148.8107530084
aa(lp826
F788743.5817221506
aF3435291.6860387605
aa(lp827
F788034.4969706489
aF3435582.7282875087
aa(lp828
F787552.9543408947
aF3435783.812023012
aa(lp829
F787224.8703513956
aF3435995.4791130107
aa(lp830
F786907.3697163938
aF3436223.021234762
aa(lp831
F786388.7853458896
aF3436503.480129013
aa(lp832
F786018.3679383891
aF3436720.4388962667
aa(lp833
F785759.0757531393
aF3436963.8560497668
aa(lp834
F785489.2002133876
aF3437217.856557766
aa(lp835
F785383.3666683845
aF3437302.523393765
aa(lp836
F785266.949768885
aF3437328.981780017
aa(lp837
F785356.9082821365
aF3437498.3154520188
aa(lp838
F785346.3249276374
aF3437667.649124019
aa(lp839
F785346.3249276374
aF3437942.816341022
aa(lp840
F785049.9910016349
aF3438419.067293523
aa(lp841
F784891.240684134
aF3438688.9428332765
aa(lp842
F784721.9070121329
aF3439144.0270767715
aa(lp843
F784658.4068851322
aF3439435.0693255253
aa(lp844
F784631.9484988842
aF3439652.0280927736
aa(lp845
F784510.2399221305
aF3440059.4872410335
aa(lp846
F784446.7397951325
aF3440244.6959447786
aa(lp847
F784213.9059961308
aF3440488.1130982805
aa(lp848
F784060.4473558813
aF3440689.1968337838
aa(lp849
F783584.1964033786
aF3441017.280823283
aa(lp850
F783388.4043451268
aF3441128.4060455337
aa(lp851
F783224.3623503773
aF3441292.448040284
aa(lp852
F783033.861969375
aF3441514.6984847877
aa(lp853
F782928.0284243748
aF3441710.490543036
aa(lp854
F782774.5697841253
aF3441996.2411145363
aa(lp855
F782568.1943713743
aF3442361.36684479
aa(lp856
F782393.5690221218
aF3442758.2426385414
aa(lp857
F782160.735223121
aF3443139.243400542
aa(lp858
F782033.7349691214
aF3443345.618813293
aa(lp859
F781456.9421488671
aF3444012.370146798
aa(lp860
F781261.150090619
aF3444218.745559549
aa(lp861
F780869.5659741163
aF3444827.288443301
aa(lp862
F780599.6904343646
aF3445234.7475915533
aa(lp863
F780599.6904343646
aF3445345.872813804
aa(lp864
F780663.1905613653
aF3445488.7480995525
aa(lp865
F780657.8988841167
aF3445668.6651260555
aa(lp866
F780647.3155296147
aF3445959.7073748037
aa(lp867
F780472.690180365
aF3446356.5831685606
aa(lp868
F780430.3567623636
aF3446451.833359061
aa(lp869
F780287.4814766133
aF3446748.167285057
aa(lp870
F780144.6061908631
aF3447318.3455087487
aa(lp871
F780009.6684209881
aF3447731.0963342506
aa(lp872
F779954.1058098627
aF3447862.065346189
aa(lp873
F779926.3245042991
aF3448401.8164256923
aa(lp874
F779966.0120836738
aF3448457.379036816
aa(lp875
F779958.0745677985
aF3448556.5979852546
aa(lp876
F779981.8871154245
aF3448790.7547035683
aa(lp877
F779969.9808416115
aF3449060.630243318
aa(lp878
F779942.1995360497
aF3449263.0368981324
aa(lp879
F779811.2305241106
aF3449572.600017259
aa(lp880
F779672.323996298
aF3449695.631513322
aa(lp881
F779469.9173414847
aF3449886.131894322
aa(lp882
F779295.2919922359
aF3450013.1321483236
aa(lp883
F779033.3539683586
aF3450259.1951404456
aa(lp884
F778819.0410397323
aF3450449.6955214515
aa(lp885
F778620.6031428566
aF3450620.3521127645
aa(lp886
F778489.6341309175
aF3450783.0711881984
aa(lp887
F778370.5713927941
aF3450918.008958077
aa(lp888
F778184.0397697287
aF3451219.634561328
aa(lp889
F778064.9770316053
aF3451370.4473629557
aa(lp890
F777965.7580831675
aF3451560.947743956
aa(lp891
F777969.7268411051
aF3451624.447870955
aa(lp892
F777985.601872853
aF3451795.104462268
aa(lp893
F777997.508146666
aF3452076.8862758335
aa(lp894
F778013.3831784176
aF3452191.980256019
aa(lp895
F777989.5706307907
aF3452287.2304465193
aa(lp896
F777886.3829244152
aF3452386.44939496
aa(lp897
F777838.7578291651
aF3452477.7308275197
aa(lp898
F777767.3201862918
aF3452537.262196582
aa(lp899
F777719.695091039
aF3452612.6685973965
aa(lp900
F777672.0699957889
aF3452715.856303772
aa(lp901
F777580.7885632263
aF3452842.8565577734
aa(lp902
F777517.2884362284
aF3452997.6381173376
aa(lp903
F777501.4134044778
aF3453084.9507919624
aa(lp904
F777433.9445195384
aF3453116.7008554637
aa(lp905
F777390.2881822269
aF3453211.951045964
aa(lp906
F777299.0067496644
aF3453390.5451531485
aa(lp907
F777199.7878012266
aF3453549.2954706512
aa(lp908
F777112.475126599
aF3453719.952061966
aa(lp909
F777092.6313369134
aF3453862.8273477126
aa(lp910
F777052.9437575387
aF3454029.5151810925
aa(lp911
F777029.1312099118
aF3454124.7653715927
aa(lp912
F777088.6625789758
aF3454323.2032684684
aa(lp913
F777191.8502853513
aF3454704.204030467
aa(lp914
F777243.444138539
aF3454894.7044114675
aa(lp915
F777283.1317179129
aF3455029.642181346
aa(lp916
F777437.9132774761
aF3455497.95561797
aa(lp917
F777572.851047351
aF3455771.79991566
aa(lp918
F777691.9137854772
aF3456061.519245101
aa(lp919
F777799.0702497903
aF3456168.6757094115
aa(lp920
F777830.8203132898
aF3456279.8009316623
aa(lp921
F777783.1952180397
aF3456307.582237223
aa(lp922
F777457.7570671653
aF3456795.73946354
aa(lp923
F777473.6320989132
aF3456867.177106414
aa(lp924
F777422.0382457254
aF3456926.708475476
aa(lp925
F777418.0694877878
aF3457014.021150101
aa(lp926
F777418.0694877878
aF3457093.396308856
aa(lp927
F777354.5693607898
aF3457156.896435853
aa(lp928
F777215.6628329745
aF3457180.708983481
aa(lp929
F777029.1312099118
aF3457256.11538429
aa(lp930
F776894.1934400378
aF3457275.9591739792
aa(lp931
F776830.693313037
aF3457240.2403525375
aa(lp932
F776802.9120074753
aF3457283.8966898564
aa(lp933
F776656.0679637846
aF3457406.9281859174
aa(lp934
F776302.8485073457
aF3457637.1161462944
aa(lp935
F776203.6295589078
aF3457676.8037256673
aa(lp936
F776163.941979534
aF3457712.5225471035
aa(lp937
F775890.0976818437
aF3457990.3356027324
aa(lp938
F775814.6912810327
aF3458053.8357297312
aa(lp939
F775806.7537651574
aF3458109.3983408604
aa(lp940
F775616.2533841571
aF3458414.9927020464
aa(lp941
F775560.6907730317
aF3458478.4928290434
aa(lp942
F775497.1906460309
aF3458490.399102859
aa(lp943
F775544.815741281
aF3458549.930471923
aa(lp944
F775576.5658047795
aF3459204.7755316123
aa(lp945
F775687.6910270303
aF3459740.557853177
aa(lp946
F775802.7850072198
aF3460125.5273731165
aa(lp947
F775866.2851342205
aF3460387.465396991
aa(lp948
F775981.379114409
aF3460681.153484367
aa(lp949
F776040.9104834693
aF3460879.5913812425
aa(lp950
F776104.4106104709
aF3461006.591635244
aa(lp951
F776275.0672017848
aF3461407.4361869358
aa(lp952
F776513.1926780343
aF3461951.156024374
aa(lp953
F776747.3493963499
aF3462526.6259253155
aa(lp954
F776826.7245550994
aF3462637.7511475664
aa(lp955
F776910.0684717856
aF3462665.532453127
aa(lp956
F776882.2871662248
aF3462717.126306316
aa(lp957
F776870.3808924109
aF3462768.7201595027
aa(lp958
F777048.974999601
aF3463145.7521635685
aa(lp959
F777160.1002218518
aF3463411.658945378
aa(lp960
F777275.1942020375
aF3463594.2218105067
aa(lp961
F777457.7570671653
aF3464006.9726360086
aa(lp962
F777620.4761426039
aF3464356.223334508
aa(lp963
F777719.6950910417
aF3464614.192600446
aa(lp964
F777791.132733915
aF3464645.942663947
aa(lp965
F777779.226460102
aF3464741.1928544473
aa(lp966
F777878.4454085398
aF3464931.6932354476
aa(lp967
F778084.8208212908
aF3465352.381576825
aa(lp968
F778291.1962340418
aF3465796.88246583
aa(lp969
F778430.1027618572
aF3466221.5395651422
aa(lp970
F778453.9153094804
aF3466281.0709342044
aa(lp971
F778662.2751011997
aF3466710.3582511153
aa(lp972
F778751.5721547939
aF3466908.796147991
aa(lp973
F778943.395455108
aF3467342.052222835
aa(lp974
F779045.921701829
aF3467580.1776990835
aa(lp975
F779052.5362983905
aF3467686.0112440847
aa(lp976
F779095.5311760465
aF3467752.1572097093
aa(lp977
F779214.5939141726
aF3467934.0586151835
aa(lp978
F779307.1982660489
aF3468125.881915491
aa(lp979
F779370.0369333904
aF3468297.8614261188
aa(lp980
F779442.7974955803
aF3468466.5336384624
aa(lp981
F779492.4069697978
aF3468522.757709248
aa(lp982
F779687.5375683922
aF3468909.711608153
aa(lp983
F779750.3762357365
aF3469058.540030811
aa(lp984
F779783.4492185488
aF3469147.837084407
aa(lp985
F779866.1316755814
aF3469303.2801036257
aa(lp986
F779978.5798171461
aF3469508.332597064
aa(lp987
F780130.7155380826
aF3469812.6040389407
aa(lp988
F780325.8461366771
aF3470216.0944292545
aa(lp989
F780385.3775057402
aF3470259.0893069096
aa(lp990
F780481.2891558968
aF3470470.75639691
aa(lp991
F780709.4927373044
aF3470910.627068322
aa(lp992
F780914.5452307416
aF3471327.346651759
aa(lp993
F781182.436391524
aF3471780.4465162903
aa(lp994
F781397.4107798068
aF3472157.47852036
aa(lp995
F781519.7808162142
aF3472375.760206921
aa(lp996
F781638.8435543375
aF3472603.9637883287
aa(lp997
F781681.8384319963
aF3472627.1148762982
aa(lp998
F781675.2238354338
aF3472699.8754384853
aa(lp999
F781771.1354855904
aF3472842.0892645773
aa(lp1000
F781976.1879790286
aF3473189.355584109
aa(lp1001
F782161.3966827802
aF3473493.627025988
aa(lp1002
F782207.6988587165
aF3473556.4656933285
aa(lp1003
F782326.7615968427
aF3473731.7525022402
aa(lp1004
F782472.2827212177
aF3473979.7998733334
aa(lp1005
F782640.9549335642
aF3474254.30563068
aa(lp1006
F782707.1008991888
aF3474393.212158492
aa(lp1007
F782803.0125493454
aF3474492.431106927
aa(lp1008
F782915.4606909072
aF3474674.332512401
aa(lp1009
F783060.9818152841
aF3474859.541216152
aa(lp1010
F783249.497817317
aF3475183.6564477105
aa(lp1011
F783530.6181712225
aF3475643.37090881
aa(lp1012
F783831.5823148172
aF3476070.0123870913
aa(lp1013
F784020.0983168501
aF3476351.1327410005
aa(lp1014
F784211.9216171633
aF3476619.023901785
aa(lp1015
F784423.5887071658
aF3476883.607764285
aa(lp1016
F784674.9433765393
aF3477217.644890694
aa(lp1017
F784724.5528507596
aF3477316.863839129
aa(lp1018
F784810.5426060734
aF3477386.3171030376
aa(lp1019
F784952.7564321673
aF3477554.989315383
aa(lp1020
F785061.8972754478
aF3477690.5885449164
aa(lp1021
F785200.8038032623
aF3477849.3388624154
aa(lp1022
F785283.486260293
aF3478024.6256713215
aa(lp1023
F785356.2468224829
aF3478034.547566166
aa(lp1024
F785429.00738467
aF3478087.4643386677
aa(lp1025
F785514.9971399838
aF3478199.9124802276
aa(lp1026
F785498.4606485758
aF3478282.5949372593
aa(lp1027
F785607.6014918564
aF3478365.277394293
aa(lp1028
F785657.2109660767
aF3478371.8919908535
aa(lp1029
F785710.1277385782
aF3478457.8817461655
aa(lp1030
F785888.7218457656
aF3478669.548836166
aa(lp1031
F785958.1751096714
aF3478765.4604863226
aa(lp1032
F786090.4670409216
aF3478901.059715856
aa(lp1033
F786212.8370773289
aF3479082.9611213244
aa(lp1034
F786361.6654999871
aF3479238.404140543
aa(lp1035
F786510.4939226424
aF3479374.0033700783
aa(lp1036
F786513.8012209237
aF3479430.2274408583
aa(lp1037
F786540.2596071744
aF3479440.149335703
aa(lp1038
F786560.1033968627
aF3479446.7639322653
aa(lp1039
F786626.2493624873
aF3479502.9880030453
aa(lp1040
F786824.687259363
aF3479714.6550930496
aa(lp1041
F787185.1827720208
aF3480091.68709711
aa(lp1042
F787244.7141410839
aF3480167.754957579
aa(lp1043
F787304.245510147
aF3480197.520642111
aa(lp1044
F787324.0892998334
aF3480260.3593094535
aa(lp1045
F787347.240387803
aF3480306.6614853926
aa(lp1046
F787413.3863534285
aF3480352.9636613317
aa(lp1047
F787552.2928812401
aF3480475.3336977363
aa(lp1048
F787658.1264262423
aF3480584.474541018
aa(lp1049
F787734.1942867106
aF3480644.0059100855
aa(lp1050
F787790.4183574934
aF3480720.073770551
aa(lp1051
F787866.4862179616
aF3480776.2978413366
aa(lp1052
F787896.2519024927
aF3480842.443806961
aa(lp1053
F787922.7102887435
aF3480921.8189657107
aa(lp1054
F787975.627061245
aF3481027.652510708
aa(lp1055
F788025.2365354626
aF3481140.100652272
aa(lp1056
F788035.1584303053
aF3481285.621776646
aa(lp1057
F788021.9292371813
aF3481338.5385491475
aa(lp1058
F787972.3197629638
aF3481305.4655663315
aa(lp1059
F787926.0175870247
aF3481325.3093560226
aa(lp1060
F787935.9394818675
aF3481351.7677422706
aa(lp1061
F787972.3197629638
aF3481447.679392429
aa(lp1062
F787076.0419287402
aF3483124.4796210323
aa(lp1063
F787046.2762442082
aF3483180.703691812
aa(lp1064
F787009.8959631147
aF3483213.7766746264
aa(lp1065
F786636.171257331
aF3483352.68320244
aa(lp1066
F786351.7436051415
aF3483461.8240457214
aa(lp1067
F786044.1648649853
aF3483577.5794855636
aa(lp1068
F785944.9459165474
aF3483630.496258065
aa(lp1069
F785961.4824079527
aF3483666.8765391577
aa(lp1070
F786007.7845838917
aF3483772.710084161
aa(lp1071
F786044.1648649853
aF3483852.0852429103
aa(lp1072
F786080.5451460788
aF3483918.231208535
aa(lp1073
F786143.3838134231
aF3483934.767699942
aa(lp1074
F786166.5349013926
aF3483981.0698758774
aa(lp1075
F786239.2954635797
aF3484133.2055968177
aa(lp1076
F786292.2122360785
aF3484268.804826347
aa(lp1077
F786381.5092896735
aF3484516.852197446
aa(lp1078
F786467.4990449864
aF3484695.4463046305
aa(lp1079
F786520.415817488
aF3484801.2798496317
aa(lp1080
F786576.639888268
aF3484900.4987980723
aa(lp1081
F786629.5566607686
aF3485006.33234307
aa(lp1082
F786712.2391177993
aF3485135.3169760406
aa(lp1083
F786771.7704868624
aF3485244.457819322
aa(lp1084
F786814.7653645175
aF3485290.759995261
aa(lp1085
F786867.682137019
aF3485323.8329780716
aa(lp1086
F786953.6718923328
aF3485426.3592247907
aa(lp1087
F787036.3543493627
aF3485509.0416818224
aa(lp1088
F787046.2762442082
aF3485608.260630263
aa(lp1089
F787076.0419287402
aF3485644.6409113575
aa(lp1090
F787128.958701239
aF3485724.016070105
aa(lp1091
F787185.1827720208
aF3485829.8496151026
aa(lp1092
F787251.3287376463
aF3485922.453966981
aa(lp1093
F787281.0944221774
aF3485981.985336045
aa(lp1094
F787327.3965981146
aF3485998.521827452
aa(lp1095
F787396.8498620233
aF3486087.818881048
aa(lp1096
F787489.4542138958
aF3486180.4232329205
aa(lp1097
F787615.1315485844
aF3486289.564076202
aa(lp1098
F787691.1994090555
aF3486359.0173401106
aa(lp1099
F787754.0380763998
aF3486501.2311662007
aa(lp1100
F787777.1891643666
aF3486597.1428163573
aa(lp1101
F787800.3402523361
aF3486656.6741854213
aa(lp1102
F787926.0175870247
aF3486689.7471682355
aa(lp1103
F788041.7730268678
aF3486719.5128527675
aa(lp1104
F788114.5335890567
aF3486752.585835578
aa(lp1105
F788183.9868529635
aF3486752.585835578
aa(lp1106
F788250.132818588
aF3486808.8099063616
aa(lp1107
F788286.5130996825
aF3486822.0390994865
aa(lp1108
F788312.9714859324
aF3486845.190187456
aa(lp1109
F788329.5079773376
aF3486911.3361530807
aa(lp1110
F788398.9612412443
aF3486944.409135891
aa(lp1111
F788448.5707154637
aF3486967.5602238607
aa(lp1112
F788524.6385759348
aF3487020.476996362
aa(lp1113
F788647.0086123394
aF3487023.7842946406
aa(lp1114
F788789.2224384351
aF3487000.633206675
aa(lp1115
F788822.2954212483
aF3487000.633206675
aa(lp1116
F788891.7486851541
aF3486927.872644484
aa(lp1117
F788941.3581593717
aF3486865.0339771416
aa(lp1118
F788984.3530370304
aF3486808.8099063616
aa(lp1119
F788984.3530370304
aF3486722.820151046
aa(lp1120
F789047.1917043738
aF3486663.288781982
aa(lp1121
F789106.723073435
aF3486693.054466514
aa(lp1122
F789106.723073435
aF3486749.2785372995
aa(lp1123
F789106.723073435
aF3486802.1953097954
aa(lp1124
F789116.6449682806
aF3486868.3412754256
aa(lp1125
F789159.6398459366
aF3486927.872644484
aa(lp1126
F789159.6398459366
aF3486980.7894169856
aa(lp1127
F789192.7128287489
aF3487023.7842946406
aa(lp1128
F789278.7025840627
aF3487020.476996362
aa(lp1129
F789381.2288307808
aF3486994.0186101086
aa(lp1130
F789513.5207620319
aF3486997.3259083927
aa(lp1131
F789576.3594293762
aF3487000.633206675
aa(lp1132
F789668.9637812516
aF3486957.638329016
aa(lp1133
F789774.7973262509
aF3486904.7215565145
aa(lp1134
F789814.4849056257
aF3486812.11720464
aa(lp1135
F789831.0213970337
aF3486722.820151046
aa(lp1136
F789890.5527660968
aF3486590.528219795
aa(lp1137
F789950.084135157
aF3486524.3822541703
aa(lp1138
F790052.6103818789
aF3486468.1581833903
aa(lp1139
F790184.902313129
aF3486435.085200576
aa(lp1140
F790310.5796478176
aF3486395.3976211995
aa(lp1141
F790389.9548065662
aF3486345.78814698
aa(lp1142
F790480.7484126305
aF3486357.647567408
aa(lp1143
F790583.2746593514
aF3486347.7256725617
aa(lp1144
F790771.7906613816
aF3486308.0380931906
aa(lp1145
F790847.8585218526
aF3486215.4337413125
aa(lp1146
F790953.692066852
aF3486036.8396341223
aa(lp1147
F790993.3796462268
aF3485914.4695977177
aa(lp1148
F790999.9942427892
aF3485798.7141578756
aa(lp1149
F790976.8431548215
aF3485706.1098059975
aa(lp1150
F790937.1555754449
aF3485636.656542089
aa(lp1151
F790953.692066852
aF3485507.671909122
aa(lp1152
F791009.9161376348
aF3485385.3018727154
aa(lp1153
F791009.9161376348
aF3485322.463205369
aa(lp1154
F791039.681822164
aF3485216.629660368
aa(lp1155
F791109.1350860726
aF3485180.91083893
aa(lp1156
F791326.0938533228
aF3485172.9733230546
aa(lp1157
F791416.0523665724
aF3485183.5566775575
aa(lp1158
F791474.2608163245
aF3485133.2857436836
aa(lp1159
F791648.8861655733
aF3484937.49368543
aa(lp1160
F791662.1153586973
aF3484858.1185266804
aa(lp1161
F791730.9071629494
aF3484765.514174806
aa(lp1162
F791826.1573534496
aF3484662.3264684305
aa(lp1163
F791884.3658031998
aF3484590.8888255525
aa(lp1164
F791961.0951233245
aF3484545.909568932
aa(lp1165
F792029.8869275767
aF3484569.7221165523
aa(lp1166
F792101.32457045
aF3484482.4094419274
aa(lp1167
F792384.4293033257
aF3484159.617129678
aa(lp1168
F792503.4920414528
aF3484119.9295503013
aa(lp1169
F792548.4712980781
aF3484074.9502936807
aa(lp1170
F792514.075395952
aF3484006.1584894285
aa(lp1171
F792492.9086869527
aF3483844.762333302
aa(lp1172
F792495.5545255765
aF3483701.8870475497
aa(lp1173
F792495.5545255765
aF3483551.074245926
aa(lp1174
F792495.5545255765
aF3483379.0947353
aa(lp1175
F792524.6587504521
aF3483249.448642675
aa(lp1176
F792559.0546525782
aF3483095.9900024217
aa(lp1177
F792686.0549065797
aF3482786.426883295
aa(lp1178
F792712.5132928276
aF3482693.8225314207
aa(lp1179
F792754.8467108291
aF3482587.9889864195
aa(lp1180
F792855.3885785779
aF3482521.843020793
aa(lp1181
F792974.451316704
aF3482495.384634545
aa(lp1182
F793114.6807638304
aF3482455.6970551684
aa(lp1183
F793035.3056050809
aF3482418.6553144176
aa(lp1184
F792908.3053510794
aF3482418.6553144176
aa(lp1185
F792836.8677082052
aF3482283.7175445464
aa(lp1186
F792704.5757769523
aF3482151.4256132953
aa(lp1187
F792675.4715520777
aF3482077.3421317954
aa(lp1188
F792543.1796208266
aF3481990.0294571705
aa(lp1189
F792395.0126578286
aF3481884.1959121674
aa(lp1190
F792278.5957583264
aF3481778.362367166
aa(lp1191
F792164.8246974507
aF3481701.6330470424
aa(lp1192
F792098.6787318261
aF3481643.4245972894
aa(lp1193
F792037.8244434521
aF3481632.841242792
aa(lp1194
F791955.8034460759
aF3481587.861986166
aa(lp1195
F791852.6157397004
aF3481500.549311541
aa(lp1196
F791789.1156126997
aF3481407.9449596684
aa(lp1197
F791760.0113878241
aF3481302.1114146654
aa(lp1198
F791749.4280333249
aF3481156.5902902912
aa(lp1199
F791765.3030650727
aF3481063.985938413
aa(lp1200
F791831.4490307011
aF3481008.4233272895
aa(lp1201
F791852.6157397004
aF3480926.4023299143
aa(lp1202
F791826.1573534496
aF3480825.8604621645
aa(lp1203
F791760.0113878241
aF3480717.3810785413
aa(lp1204
F791707.0946153235
aF3480645.9434356615
aa(lp1205
F791643.5944883227
aF3480574.505792789
aa(lp1206
F791561.5734909484
aF3480455.443054661
aa(lp1207
F791450.4482686976
aF3480458.0888932887
aa(lp1208
F791328.7396919476
aF3480468.672247786
aa(lp1209
F791249.3645331953
aF3480439.5680229105
aa(lp1210
F791238.7811786961
aF3480344.3178324103
aa(lp1211
F791257.3020490706
aF3480264.942673661
aa(lp1212
F791289.0521125728
aF3480140.588258287
aa(lp1213
F791352.5522395708
aF3480032.108874658
aa(lp1214
F791278.4687580727
aF3479981.837940784
aa(lp1215
F791185.8644061973
aF3479897.171104785
aa(lp1216
F791109.1350860726
aF3479815.15010741
aa(lp1217
F791066.8016680712
aF3479751.6499804053
aa(lp1218
F791069.4475066978
aF3479677.566498911
aa(lp1219
F791080.0308611952
aF3479603.483017409
aa(lp1220
F791027.1140886964
aF3479579.6704697832
aa(lp1221
F790963.6139616957
aF3479532.0453745313
aa(lp1222
F790934.5097368201
aF3479341.544993531
aa(lp1223
F790918.6347050695
aF3479254.232318906
aa(lp1224
F790868.3637711955
aF3479196.023869157
aa(lp1225
F790878.9471256947
aF3479129.8779035304
aa(lp1226
F790945.0930913202
aF3479071.669453781
aa(lp1227
F791003.3015410695
aF3479047.856906155
aa(lp1228
F791106.489247445
aF3478957.8983929045
aa(lp1229
F791162.0518585714
aF3478867.9398796577
aa(lp1230
F791162.0518585714
aF3478777.9813664053
aa(lp1231
F791159.4060199466
aF3478619.2310489025
aa(lp1232
F791185.8644061973
aF3478545.1475674026
aa(lp1233
F791233.4895014474
aF3478497.5224721543
aa(lp1234
F791315.5104988236
aF3478468.418247279
aa(lp1235
F791318.1563374475
aF3478412.8556361515
aa(lp1236
F791273.1770808222
aF3478330.8346387763
aa(lp1237
F791225.5519855721
aF3478277.9178662784
aa(lp1238
F791249.3645331953
aF3478201.188546151
aa(lp1239
F791310.2188215721
aF3478132.3967419006
aa(lp1240
F791334.0313691963
aF3478166.7926440276
aa(lp1241
F791355.1980781974
aF3478240.8761255294
aa(lp1242
F791437.2190755717
aF3478201.188546151
aa(lp1243
F791421.344043823
aF3478108.5841942783
aa(lp1244
F791341.9688850716
aF3478074.1882921495
aa(lp1245
F791230.8436628208
aF3478063.604937652
aa(lp1246
F791146.1768268198
aF3477963.0630698986
aa(lp1247
F791074.7391839465
aF3477881.0420725234
aa(lp1248
F791061.5099908225
aF3477820.187784152
aa(lp1249
F791064.1558294464
aF3477772.5626888983
aa(lp1250
F791011.2390569458
aF3477714.354239149
aa(lp1251
F791027.1140886964
aF3477616.458210023
aa(lp1252
F791048.2807976957
aF3477547.6664057747
aa(lp1253
F790960.9681230709
aF3477486.8121173996
aa(lp1254
F790881.5929643195
aF3477380.978572402
aa(lp1255
F790831.3220304446
aF3477206.353223147
aa(lp1256
F790812.8011600701
aF3477023.790358022
aa(lp1257
F790831.3220304446
aF3476843.873331519
aa(lp1258
F790826.0303531941
aF3476748.6231410187
aa(lp1259
F790799.5719669461
aF3476637.497918768
aa(lp1260
F790796.9261283185
aF3476515.7893420197
aa(lp1261
F790892.1763188187
aF3476402.018281143
aa(lp1262
F790892.1763188187
aF3476293.538897518
aa(lp1263
F790905.4055119455
aF3476132.1427413933
aa(lp1264
F790960.9681230709
aF3476015.725841893
aa(lp1265
F791029.7599273203
aF3475923.1214900147
aa(lp1266
F791077.3850225704
aF3475859.6213630177
aa(lp1267
F791103.8434088212
aF3475817.287945017
aa(lp1268
F791119.7184405718
aF3475690.2876910158
aa(lp1269
F791135.5934723206
aF3475600.329177765
aa(lp1270
F791101.1975701973
aF3475513.0165031403
aa(lp1271
F791093.260054321
aF3475436.287183013
aa(lp1272
F791080.0308611952
aF3475348.974508388
aa(lp1273
F791077.3850225704
aF3475266.9535110127
aa(lp1274
F791162.0518585714
aF3475182.2866750136
aa(lp1275
F791355.1980781974
aF3475139.953257015
aa(lp1276
F791487.4900094485
aF3475142.599095637
aa(lp1277
F791593.3235544479
aF3475129.369902514
aa(lp1278
F791701.8029380748
aF3475094.9740003888
aa(lp1279
F791802.3448058236
aF3475055.286421012
aa(lp1280
F791894.949157699
aF3474997.077971263
aa(lp1281
F791931.9908984499
aF3474922.994489763
aa(lp1282
F791971.6784778237
aF3474819.8067833874
aa(lp1283
F792032.5327662006
aF3474788.0567198843
aa(lp1284
F792135.7204725761
aF3474764.244172264
aa(lp1285
F792193.9289223263
aF3474713.97323839
aa(lp1286
F792217.7414699523
aF3474637.2439182624
aa(lp1287
F792217.7414699523
aF3474573.7437912636
aa(lp1288
F792268.0124038262
aF3474555.2229208853
aa(lp1289
F792334.1583694518
aF3474549.9312436376
aa(lp1290
F792400.3043350773
aF3474526.1186960116
aa(lp1291
F792408.2418509526
aF3474563.1604367606
aa(lp1292
F792368.5542715779
aF3474613.4313706364
aa(lp1293
F792368.5542715779
aF3474663.7023045104
aa(lp1294
F792387.0751419533
aF3474740.431624638
aa(lp1295
F792408.2418509526
aF3474827.7442992628
aa(lp1296
F792408.2418509526
aF3474901.8277807627
aa(lp1297
F792357.9709170759
aF3474946.807037389
aa(lp1298
F792328.8666922031
aF3474978.55710089
aa(lp1299
F792307.699983201
aF3475084.3906458877
aa(lp1300
F792286.5332742017
aF3475139.953257015
aa(lp1301
F792307.699983201
aF3475206.0992226396
aa(lp1302
F792344.7417239519
aF3475280.1827041414
aa(lp1303
F792384.4293033257
aF3475322.51612214
aa(lp1304
F792413.5335282013
aF3475399.2454422675
aa(lp1305
F792387.0751419533
aF3475430.995505765
aa(lp1306
F792331.512530827
aF3475475.9747623894
aa(lp1307
F792297.1166287018
aF3475526.2456962634
aa(lp1308
F792254.7832107004
aF3475579.162468765
aa(lp1309
F792241.5540175764
aF3475637.370918516
aa(lp1310
F792254.7832107004
aF3475719.3919158913
aa(lp1311
F792248.1686141379
aF3475883.8748837467
aa(lp1312
F792290.5020321393
aF3475957.9583652467
aa(lp1313
F792335.4812887656
aF3476010.875137748
aa(lp1314
F792380.4605453908
aF3476045.2710398715
aa(lp1315
F792428.0856406409
aF3476106.1253282484
aa(lp1316
F792438.668995141
aF3476264.8756457455
aa(lp1317
F792443.9606723888
aF3476346.8966431227
aa(lp1318
F792446.6065110136
aF3476444.7926722486
aa(lp1319
F792478.3565745149
aF3476510.938637875
aa(lp1320
F792539.210862889
aF3476661.751439497
aa(lp1321
F792573.606765015
aF3476764.9391458724
aa(lp1322
F792623.8776988899
aF3476839.022627374
aa(lp1323
F792692.6695031412
aF3476918.3977861237
aa(lp1324
F792719.1278893901
aF3476979.2520744987
aa(lp1325
F792735.0029211408
aF3477050.6897173785
aa(lp1326
F792809.0864026416
aF3477164.4607782513
aa(lp1327
F792869.9406910157
aF3477230.606743876
aa(lp1328
F792930.7949793916
aF3477296.7527095005
aa(lp1329
F792973.1283973912
aF3477402.5862545036
aa(lp1330
F793052.5035561426
aF3477495.190606376
aa(lp1331
F793126.5870376434
aF3477593.086635504
aa(lp1332
F793219.1913895188
aF3477661.878439756
aa(lp1333
F793229.7747440189
aF3477722.7327281274
aa(lp1334
F793277.399839269
aF3477754.4827916287
aa(lp1335
F793340.8999662697
aF3477794.1703710053
aa(lp1336
F793417.6292863945
aF3477881.48304563
aa(lp1337
F793497.004445144
aF3477987.3165906332
aa(lp1338
F793552.5670562694
aF3478077.27510388
aa(lp1339
F793639.8797308942
aF3478151.35858538
aa(lp1340
F793711.3173737703
aF3478257.192130383
aa(lp1341
F793801.2758870218
aF3478328.6297732554
aa(lp1342
F793920.3386251479
aF3478482.0884135067
aa(lp1343
F794005.0054611461
aF3478561.4635722563
aa(lp1344
F794108.1931675216
aF3478675.234633133
aa(lp1345
F794203.4433580218
aF3478744.0264373794
aa(lp1346
F794335.7352892719
aF3478852.50582101
aa(lp1347
F794433.6313183988
aF3478939.818495633
aa(lp1348
F794534.1731861476
aF3479013.901977135
aa(lp1349
F794690.2776650237
aF3479122.381360758
aa(lp1350
F794788.1736941505
aF3479162.0689401366
aa(lp1351
F794830.5071121501
aF3479185.8814877626
aa(lp1352
F794896.6530777747
aF3479204.402358135
aa(lp1353
F794896.6530777747
aF3479262.6108078845
aa(lp1354
F794994.5491068996
aF3479299.6525486354
aa(lp1355
F795068.6325883996
aF3479318.1734190118
aa(lp1356
F795150.6535857758
aF3479334.0484507624
aa(lp1357
F795237.9662604034
aF3479318.1734190118
aa(lp1358
F795301.4663874013
aF3479281.1316782627
aa(lp1359
F795301.4663874013
aF3479230.860744383
aa(lp1360
F795319.9872577768
aF3479183.235649135
aa(lp1361
F795343.7998054028
aF3479204.402358135
aa(lp1362
F795343.7998054028
aF3479238.7982602585
aa(lp1363
F795380.8415461536
aF3479238.7982602585
aa(lp1364
F795465.5083821537
aF3479217.6315512583
aa(lp1365
F795555.4668954024
aF3479207.048196761
aa(lp1366
F795637.4878927786
aF3479188.5273263846
aa(lp1367
F795674.5296335286
aF3479148.839747006
aa(lp1368
F795719.5088901548
aF3479050.9437178858
aa(lp1369
F795759.1964695295
aF3478976.860236384
aa(lp1370
F795843.8633055296
aF3478966.276881883
aa(lp1371
F795920.5926256543
aF3478971.5685591362
aa(lp1372
F795984.092752655
aF3478926.58930251
aa(lp1373
F796015.8428161545
aF3478852.50582101
aa(lp1374
F796066.1137500294
aF3478831.33911201
aa(lp1375
F796169.3014564048
aF3478873.6725300085
aa(lp1376
F796187.8223267822
aF3478913.360109385
aa(lp1377
F796235.4474220322
aF3478921.2976252604
aa(lp1378
F796325.405935281
aF3478905.42259351
aa(lp1379
F796351.8643215317
aF3478902.776754884
aa(lp1380
F796441.8228347832
aF3478902.776754884
aa(lp1381
F796539.7188639073
aF3478878.964207258
aa(lp1382
F796568.8230887828
aF3478823.4015961345
aa(lp1383
F796579.406443282
aF3478744.0264373794
aa(lp1384
F796595.2814750327
aF3478654.0679241344
aa(lp1385
F796579.406443282
aF3478574.692765385
aa(lp1386
F796582.0522819068
aF3478503.255122505
aa(lp1387
F796592.6356364088
aF3478418.588286508
aa(lp1388
F796661.4274406582
aF3478389.4840616323
aa(lp1389
F796724.927567659
aF3478384.1923843846
aa(lp1390
F796783.1360174092
aF3478418.588286508
aa(lp1391
F796830.7611126592
aF3478460.9217045065
aa(lp1392
F796841.3444671584
aF3478524.4218315054
aa(lp1393
F796841.3444671584
aF3478585.2761198822
aa(lp1394
F796843.9903057832
aF3478635.547053756
aa(lp1395
F796875.7403692845
aF3478659.359601382
aa(lp1396
F796947.1780121587
aF3478688.4638262577
aa(lp1397
F797084.7616206603
aF3478656.7137627564
aa(lp1398
F797161.490940785
aF3478656.7137627564
aa(lp1399
F797222.345229161
aF3478622.3178606313
aa(lp1400
F797259.3869699119
aF3478566.7552495096
aa(lp1401
F797262.0328085357
aF3478535.0051860064
aa(lp1402
F797254.0952926604
aF3478460.9217045065
aa(lp1403
F797280.5536789112
aF3478389.4840616323
aa(lp1404
F797309.6579037858
aF3478344.504805008
aa(lp1405
F797378.4497080352
aF3478341.8589663804
aa(lp1406
F797463.1165440362
aF3478341.8589663804
aa(lp1407
F797518.6791551616
aF3478344.504805008
aa(lp1408
F797529.2625096608
aF3478397.4215775076
aa(lp1409
F797510.7416392863
aF3478442.4008341283
aa(lp1410
F797508.0958006615
aF3478511.1926383805
aa(lp1411
F797510.7416392863
aF3478566.7552495096
aa(lp1412
F797539.8458641609
aF3478606.442828886
aa(lp1413
F797587.470959411
aF3478627.609537881
aa(lp1414
F797672.1377954138
aF3478640.838731004
aa(lp1415
F797732.9920837879
aF3478640.838731004
aa(lp1416
F797793.846372162
aF3478630.2553765066
aa(lp1417
F797809.7214039126
aF3478664.6512786318
aa(lp1418
F797780.617179038
aF3478725.5055670068
aa(lp1419
F797754.1587927872
aF3478754.6097918823
aa(lp1420
F797796.4922107887
aF3478796.9432098866
aa(lp1421
F797862.6381764142
aF3478831.33911201
aa(lp1422
F797915.5549489129
aF3478934.5268183853
aa(lp1423
F797912.9091102881
aF3478998.026945384
aa(lp1424
F797881.1590467887
aF3479114.4438448884
aa(lp1425
F797770.0338245379
aF3479162.0689401366
aa(lp1426
F797682.721149913
aF3479212.3398740105
aa(lp1427
F797590.1167980377
aF3479310.2359031364
aa(lp1428
F797545.1375414114
aF3479373.7360301353
aa(lp1429
F797558.3667345364
aF3479397.5485777613
aa(lp1430
F797595.4084752863
aF3479447.819511635
aa(lp1431
F797566.3042504117
aF3479500.736284137
aa(lp1432
F797521.3249937883
aF3479609.215667762
aa(lp1433
F797423.4289646614
aF3479746.7992762607
aa(lp1434
F797410.1997715374
aF3479802.361887388
aa(lp1435
F797415.4914487861
aF3479852.632821262
aa(lp1436
F797484.2832530374
aF3479860.570337137
aa(lp1437
F797463.1165440362
aF3479926.7163027637
aa(lp1438
F797431.3664805368
aF3479963.7580435127
aa(lp1439
F797423.4289646614
aF3480035.195686387
aa(lp1440
F797420.7831260366
aF3480077.5291043855
aa(lp1441
F797375.8038694113
aF3480130.4458768927
aa(lp1442
F797283.199517535
aF3480093.404136138
aa(lp1443
F797259.3869699119
aF3480141.02923139
aa(lp1444
F797262.0328085357
aF3480186.008488016
aa(lp1445
F797277.9078402864
aF3480257.4461308885
aa(lp1446
F797272.6161630359
aF3480371.217191767
aa(lp1447
F797238.2202609098
aF3480447.946511889
aa(lp1448
F797254.0952926604
aF3480511.4466388933
aa(lp1449
F797317.5954196611
aF3480569.6550886426
aa(lp1450
F797367.866353536
aF3480580.23844314
aa(lp1451
F797426.0748032853
aF3480593.467636263
aa(lp1452
F797452.5331895361
aF3480683.4261495154
aa(lp1453
F797478.9915757868
aF3480781.3221786413
aa(lp1454
F797478.9915757868
aF3480871.280691894
aa(lp1455
F797497.5124461623
aF3480955.947527891
aa(lp1456
F797471.0540599115
aF3481085.59362052
aa(lp1457
F797444.5956736607
aF3481149.093747519
aa(lp1458
F797386.3872239105
aF3481207.302197268
aa(lp1459
F797328.1787741613
aF3481252.2814538945
aa(lp1460
F797296.42871066
aF3481321.0732581466
aa(lp1461
F797304.3662265353
aF3481418.969287267
aa(lp1462
F797357.2829990359
aF3481456.011028018
aa(lp1463
F797373.1580307866
aF3481519.5111550204
aa(lp1464
F797354.637160412
aF3481580.3654433936
aa(lp1465
F797338.7621286605
aF3481638.5738931485
aa(lp1466
F797277.9078402864
aF3481739.1157608964
aa(lp1467
F797198.532681535
aF3481770.865824394
aa(lp1468
F797145.6159090344
aF3481823.7825968936
aa(lp1469
F797095.3449751595
aF3481879.3452080227
aa(lp1470
F797071.5324275354
aF3481974.595398523
aa(lp1471
F797082.1157820355
aF3482093.658136649
aa(lp1472
F797116.5116841588
aF3482207.429197522
aa(lp1473
F797161.490940785
aF3482270.9293245245
aa(lp1474
F797218.4646658432
aF3482374.2934201434
aa(lp1475
F797287.2564700944
aF3482443.08522439
aa(lp1476
F797361.3399515925
aF3482564.7938011438
aa(lp1477
F797446.0067875953
aF3482607.1272191424
aa(lp1478
F797488.3402055949
aF3482570.0854783915
aa(lp1479
F797551.8403325956
aF3482564.7938011438
aa(lp1480
F797610.0487823449
aF3482575.377155641
aa(lp1481
F797594.173750597
aF3482707.6690868903
aa(lp1482
F797573.007041595
aF3482813.5026318934
aa(lp1483
F797530.6736235963
aF3482951.086240392
aa(lp1484
F797551.8403325956
aF3483078.0864943936
aa(lp1485
F797520.0902690934
aF3483199.7950711474
aa(lp1486
F797493.6318828454
aF3483305.628616145
aa(lp1487
F797520.0902690934
aF3483342.670356896
aa(lp1488
F797610.0487823449
aF3483363.837065894
aa(lp1489
F797541.2569780955
aF3483459.0872563943
aa(lp1490
F797387.7983378461
aF3483522.587383393
aa(lp1491
F797255.5064065931
aF3483612.545896644
aa(lp1492
F797170.9391236119
aF3483750.682592325
aa(lp1493
F797175.172465411
aF3484053.3665310293
aa(lp1494
F797185.7558199139
aF3484273.500304628
aa(lp1495
F797209.0391998133
aF3484442.83397663
aa(lp1496
F797240.7892633118
aF3484527.500812633
aa(lp1497
F797253.4892887119
aF3484641.8010412287
aa(lp1498
F797300.0560485134
aF3484779.3846497275
aa(lp1499
F797331.8061120128
aF3484870.4014984295
aa(lp1500
F797378.3728718134
aF3485033.3851577323
aa(lp1501
F797452.4563533142
aF3485276.8023112323
aa(lp1502
F797494.7897713128
aF3485367.8191599324
aa(lp1503
F797551.9398856144
aF3485541.3861737344
aa(lp1504
F797579.4566073138
aF3485642.9863769356
aa(lp1505
F797617.5566835152
aF3485863.1201505363
aa(lp1506
F797640.8400634145
aF3485994.353746338
aa(lp1507
F797634.4900507145
aF3486400.754559137
aa(lp1508
F797653.5400888138
aF3486460.0213443357
aa(lp1509
F797619.6733544152
aF3486563.7382184397
aa(lp1510
F797570.9899237137
aF3487023.0558037404
aa(lp1511
F797562.5232401136
aF3487186.0394630395
aa(lp1512
F797560.4065692136
aF3487319.389729744
aa(lp1513
F797511.7231385149
aF3487518.3567943443
aa(lp1514
F797448.2230115142
aF3487717.323858943
aa(lp1515
F797429.1729734121
aF3487787.1739986446
aa(lp1516
F797408.0062644128
aF3487873.9575055446
aa(lp1517
F797388.9562263135
aF3487962.8576833475
aa(lp1518
F797333.9227829119
aF3488119.4913299438
aa(lp1519
F797179.4058072139
aF3488483.55872475
aa(lp1520
F797130.7223765124
aF3488599.9756242484
aa(lp1521
F797024.888831513
aF3488782.0093216486
aa(lp1522
F796929.6386410128
aF3488955.576335449
aa(lp1523
F796677.7548039118
aF3489349.2771228496
aa(lp1524
F796648.1214113096
aF3489397.960553551
aa(lp1525
F796639.6547277104
aF3489448.76065515
aa(lp1526
F796658.7047658097
aF3489484.744060451
aa(lp1527
F796722.2048928104
aF3489599.0442890525
aa(lp1528
F796787.8216907112
aF3489700.64449225
aa(lp1529
F796870.3718558112
aF3489855.1614679545
aa(lp1530
F796906.3552611107
aF3489950.4116584547
aa(lp1531
F796942.338666412
aF3490026.611810852
aa(lp1532
F796991.0220971107
aF3490079.5285833534
aa(lp1533
F797018.5388188129
aF3490126.095343152
aa(lp1534
F797043.9388696123
aF3490159.9620775506
aa(lp1535
F797098.9723130129
aF3490170.5454320535
aa(lp1536
F797198.4558453131
aF3490204.412166452
aa(lp1537
F797236.5559215127
aF3490261.5622807536
aa(lp1538
F797274.655997714
aF3490310.245711455
aa(lp1539
F797344.5061374148
aF3490350.4624585565
aa(lp1540
F797378.3728718134
aF3490339.8791040536
aa(lp1541
F797416.4729480129
aF3490325.062407756
aa(lp1542
F797443.9896697141
aF3490361.045813054
aa(lp1543
F797488.4397586137
aF3490390.6792056523
aa(lp1544
F797585.8066200139
aF3490447.829319954
aa(lp1545
F797666.2401142139
aF3490473.229370754
aa(lp1546
F797748.7902793139
aF3490517.6794596557
aa(lp1547
F797810.1737354156
aF3490555.7795358542
aa(lp1548
F797896.9572423156
aF3490587.5295993555
aa(lp1549
F798026.0741672171
aF3490619.279662857
aa(lp1550
F798170.007788416
aF3490631.979688257
aa(lp1551
F798282.1913461182
aF3490644.679713657
aa(lp1552
F798356.2748276191
aF3490621.396333754
aa(lp1553
F798419.7749546198
aF3490604.4629665557
aa(lp1554
F798500.208448818
aF3490585.4129284583
aa(lp1555
F798536.1918541193
aF3490564.2462194543
aa(lp1556
F798570.0585885188
aF3490475.346041655
aa(lp1557
F798597.5753102181
aF3490430.8959527537
aa(lp1558
F798648.3754118187
aF3490409.7292437553
aa(lp1559
F798720.3422224196
aF3490413.9625855554
aa(lp1560
F798769.0256531211
aF3490449.9459908567
aa(lp1561
F798777.4923367202
aF3490507.0961051583
aa(lp1562
F798790.1923621204
aF3490560.0128776543
aa(lp1563
F798809.2424002197
aF3490583.2962575555
aa(lp1564
F798845.2258055191
aF3490600.2296247557
aa(lp1565
F798876.9758690204
aF3490642.5630427543
aa(lp1566
F798938.3593251212
aF3490697.596486157
aa(lp1567
F798978.5760722207
aF3490727.229878757
aa(lp1568
F799033.6095156213
aF3490746.2799168583
aa(lp1569
F799073.8262627209
aF3490763.2132840585
aa(lp1570
F799130.9763770215
aF3490750.5132586546
aa(lp1571
F799190.2431622222
aF3490748.3965877555
aa(lp1572
F799264.3266437203
aF3490771.6799676586
aa(lp1573
F799293.9600363225
aF3490807.66337296
aa(lp1574
F799315.1267453218
aF3490871.163499959
aa(lp1575
F799325.7100998219
aF3490964.297019556
aa(lp1576
F799334.1767834211
aF3491032.030488359
aa(lp1577
F799355.3434924213
aF3491103.997298958
aa(lp1578
F799384.9768850226
aF3491216.1808566563
aa(lp1579
F799420.9602903221
aF3491286.030996358
aa(lp1580
F799456.9436956234
aF3491393.9812122583
aa(lp1581
F799465.4103792235
aF3491520.98146626
aa(lp1582
F799497.160442722
aF3491561.198213361
aa(lp1583
F799562.7772406228
aF3491643.748378461
aa(lp1584
F799596.643975025
aF3491650.098391164
aa(lp1585
F799609.3440004224
aF3491677.6151128598
aa(lp1586
F799607.2273295224
aF3491823.6654049642
aa(lp1587
F799619.9273549244
aF3491878.698848363
aa(lp1588
F799674.9607983232
aF3491935.8489626627
aa(lp1589
F799700.3608491244
aF3491999.3490896616
aa(lp1590
F799755.3942925232
aF3492045.915849466
aa(lp1591
F799759.6276343232
aF3492096.715951059
aa(lp1592
F799772.3276597224
aF3492175.0327743646
aa(lp1593
F799789.2610269245
aF3492268.166293962
aa(lp1594
F799837.9444576232
aF3492333.7830918636
aa(lp1595
F799861.2278375234
aF3492395.1665479653
aa(lp1596
F799933.1946481233
aF3492481.9500548653
aa(lp1597
F799973.4113952247
aF3492530.633485567
aa(lp1598
F799975.5280661248
aF3492581.4335871655
aa(lp1599
F799973.4113952247
aF3492628.000346964
aa(lp1600
F800005.1614587242
aF3492691.500473967
aa(lp1601
F800098.2949783243
aF3492824.8507406656
aa(lp1602
F800140.6283963257
aF3492896.8175512645
aa(lp1603
F800153.3284217259
aF3492928.567614766
aa(lp1604
F800225.2952323258
aF3492994.1844126675
aa(lp1605
F800358.6454990255
aF3493112.717983069
aa(lp1606
F800477.1790694278
aF3493199.501489969
aa(lp1607
F800629.5793742286
aF3493328.6184148677
aa(lp1608
F800760.8129700273
aF3493451.385327071
aa(lp1609
F800868.7631859276
aF3493548.7521884684
aa(lp1610
F801008.4634653293
aF3493675.75244247
aa(lp1611
F801069.84692143
aF3493724.4358731713
aa(lp1612
F801160.8637701301
aF3493783.7026583683
aa(lp1613
F801258.2306315303
aF3493868.369494371
aa(lp1614
F801345.0141384304
aF3493946.686317673
aa(lp1615
F801465.6643797318
aF3494035.5864954703
aa(lp1616
F801577.8479374321
aF3494088.503267972
aa(lp1617
F801626.5313681327
aF3494149.8867240716
aa(lp1618
F801770.4649893316
aF3494255.7202690747
aa(lp1619
F801855.1318253325
aF3494310.7537124734
aa(lp1620
F801939.7986613326
aF3494376.3705103733
aa(lp1621
F802005.4154592333
aF3494433.5206246693
aa(lp1622
F802083.7322825342
aF3494497.0207516737
aa(lp1623
F802176.8658021344
aF3494571.1042331737
aa(lp1624
F802267.8826508345
aF3494628.2543474752
aa(lp1625
F802333.4994487353
aF3494676.9377781767
aa(lp1626
F802386.4162212359
aF3494751.021259673
aa(lp1627
F802441.4496646347
aF3494795.4713485725
aa(lp1628
F802477.433069936
aF3494812.4047157727
aa(lp1629
F802477.433069936
aF3494780.654652277
aa(lp1630
F802430.8663101355
aF3494700.221158074
aa(lp1631
F802388.5328921359
aF3494609.204309372
aa(lp1632
F802354.6661577346
aF3494507.604106175
aa(lp1633
F802335.6161196353
aF3494414.4705865737
aa(lp1634
F802320.7994233351
aF3494310.7537124734
aa(lp1635
F802314.449410636
aF3494147.7700531706
aa(lp1636
F802325.0327651352
aF3494012.303115569
aa(lp1637
F802348.3161450345
aF3493866.25282347
aa(lp1638
F802422.3996265354
aF3493654.5857334696
aa(lp1639
F802500.7164498363
aF3493493.7187450696
aa(lp1640
F802600.1999821356
aF3493362.485149268
aa(lp1641
F802699.6835144358
aF3493271.468300568
aa(lp1642
F802805.5170594361
aF3493165.6347555704
aa(lp1643
F802900.7672499381
aF3493083.0845904686
aa(lp1644
F802962.150706037
aF3493040.751172466
aa(lp1645
F803089.1509600384
aF3493002.6510962658
aa(lp1646
F803190.7511632387
aF3492962.4343491644
aa(lp1647
F803279.5102296472
aF3492928.0031691957
aa(lp1648
F803507.0523513975
aF3492906.8364601955
aa(lp1649
F803591.7191873975
aF3492896.2531056926
aa(lp1650
F803612.8858963968
aF3492853.919687694
aa(lp1651
F803676.3860233985
aF3492843.336333193
aa(lp1652
F803739.8861503992
aF3492917.419814693
aa(lp1653
F803829.8446636479
aF3492991.5032961927
aa(lp1654
F803914.511499648
aF3493070.8784549423
aa(lp1655
F803972.7199493982
aF3493113.211872941
aa(lp1656
F804094.4285261491
aF3493171.420322692
aa(lp1657
F804147.3452986497
aF3493271.9621904455
aa(lp1658
F804147.3452986497
aF3493383.0874126963
aa(lp1659
F804184.3870394006
aF3493457.1708941963
aa(lp1660
F804258.4705208987
aF3493515.3793439455
aa(lp1661
F804258.4705208987
aF3493451.879216943
aa(lp1662
F804274.3455526493
aF3493351.337349195
aa(lp1663
F804401.3458066508
aF3493282.545544943
aa(lp1664
F804480.7209654003
aF3493261.3788359426
aa(lp1665
F804628.8879284011
aF3493192.587031696
aa(lp1666
F804708.2630871506
aF3493219.045417944
aa(lp1667
F804724.1381189013
aF3493340.753994692
aa(lp1668
F804692.3880554019
aF3493467.7542486936
aa(lp1669
F804729.4297961527
aF3493531.254375696
aa(lp1670
F804787.638245902
aF3493552.4210846964
aa(lp1671
F804835.2633411521
aF3493605.337857198
aa(lp1672
F804914.6384999016
aF3493637.0879206937
aa(lp1673
F805041.6387539031
aF3493631.796243446
aa(lp1674
F805189.8057169048
aF3493647.6712751966
aa(lp1675
F805300.9309391528
aF3493658.254629694
aa(lp1676
F805385.5977751538
aF3493652.9629524443
aa(lp1677
F805454.3895794051
aF3493674.1296614446
aa(lp1678
F805539.056415406
aF3493700.588047698
aa(lp1679
F805607.8482196555
aF3493700.588047698
aa(lp1680
F805697.806732907
aF3493753.504820194
aa(lp1681
F805734.8484736541
aF3493880.5050741956
aa(lp1682
F805787.7652461557
aF3494018.0886827
aa(lp1683
F805830.0986641543
aF3494049.8387461957
aa(lp1684
F805851.2653731564
aF3494150.3806139454
aa(lp1685
F805819.5153096551
aF3494219.1724181976
aa(lp1686
F805777.1818916555
aF3494325.005963199
aa(lp1687
F805756.0151826562
aF3494399.0894447006
aa(lp1688
F805835.3903414058
aF3494420.256153699
aa(lp1689
F805920.0571774058
aF3494452.0062171966
aa(lp1690
F805930.6405319059
aF3494536.6730531994
aa(lp1691
F806010.0156906573
aF3494541.9647304527
aa(lp1692
F806015.307367906
aF3494388.5060901977
aa(lp1693
F806015.307367906
aF3494240.3391272016
aa(lp1694
F806073.5158176562
aF3494266.7975134496
aa(lp1695
F806142.3076219074
aF3494340.8809949495
aa(lp1696
F806226.9744579084
aF3494314.422608698
aa(lp1697
F806195.2243944062
aF3494208.5890637003
aa(lp1698
F805888.3071139073
aF3493684.7130159475
aa(lp1699
F805898.8904684065
aF3493536.546052946
aa(lp1700
F806158.182653659
aF3493488.920957694
aa(lp1701
F807073.6428179117
aF3493012.670005193
aa(lp1702
F807153.0179766612
aF3492954.4615554437
aa(lp1703
F807195.3513946626
aF3492880.378073942
aa(lp1704
F807253.5598444119
aF3492674.002661191
aa(lp1705
F807713.935765164
aF3491605.083856687
aa(lp1706
F807809.1859556641
aF3491605.083856687
aa(lp1707
F807962.6445959145
aF3491509.833666187
aa(lp1708
F808010.2696911646
aF3491472.791925436
aa(lp1709
F808153.1449769139
aF3491509.833666187
aa(lp1710
F808216.6451039156
aF3491546.875406936
aa(lp1711
F808280.1452309163
aF3491509.833666187
aa(lp1712
F808454.7705801679
aF3491472.791925436
aa(lp1713
F808618.8125749175
aF3491483.375279939
aa(lp1714
F808687.6043791668
aF3491441.0418619383
aa(lp1715
F808862.2297284184
aF3491441.0418619383
aa(lp1716
F808978.6466279179
aF3491462.2085709386
aa(lp1717
F809110.938559169
aF3491509.833666187
aa(lp1718
F809179.7303634202
aF3491557.4587614387
aa(lp1719
F809243.2304904191
aF3491636.8339201882
aa(lp1720
F809259.1055221697
aF3491716.209078938
aa(lp1721
F809237.9388131704
aF3491779.709205935
aa(lp1722
F809284.2409891067
aF3491828.1280527767
aa(lp1723
F809387.4286954822
aF3491844.0030845273
aa(lp1724
F809474.7413701098
aF3491780.5029575247
aa(lp1725
F809609.6791399848
aF3491844.0030845273
aa(lp1726
F809681.1167828608
aF3491923.378243277
aa(lp1727
F809839.8671003589
aF3491931.315759152
aa(lp1728
F809990.6799019845
aF3491844.0030845273
aa(lp1729
F810157.3677353607
aF3491923.378243277
aa(lp1730
F810244.6804099856
aF3491891.6281797756
aa(lp1731
F810316.1180528617
aF3491851.9406004027
aa(lp1732
F810427.2432751134
aF3491883.6906639
aa(lp1733
F810546.3060132395
aF3491859.878116278
aa(lp1734
F810673.3062672382
aF3491939.2532750275
aa(lp1735
F810776.4939736137
aF3491836.065568652
aa(lp1736
F810887.6191958645
aF3491883.6906639
aa(lp1737
F811220.9948626151
aF3492082.128560776
aa(lp1738
F811300.3700213665
aF3492169.4412354007
aa(lp1739
F811244.8074102411
aF3492296.441489402
aa(lp1740
F811165.4322514897
aF3492439.3167751543
aa(lp1741
F811324.1825689906
aF3492494.879386278
aa(lp1742
F811538.4954976169
aF3492431.379259279
aa(lp1743
F811530.5579817416
aF3492225.003846528
aa(lp1744
F811594.0581087423
aF3492113.878624277
aa(lp1745
F811617.8706563665
aF3492034.5034655277
aa(lp1746
F811363.8701483654
aF3491923.378243277
aa(lp1747
F810784.431489489
aF3491605.877608275
aa(lp1748
F810339.9306004886
aF3491320.1270367745
aa(lp1749
F809554.1165288594
aF3490185.062266644
aa(lp1750
F809331.8660843568
aF3489867.5616316423
aa(lp1751
F809308.0535367336
aF3489605.6236077677
aa(lp1752
F809133.4281874811
aF3489629.43615539
aa(lp1753
F808990.5529017318
aF3489684.9987665173
aa(lp1754
F809038.1779969819
aF3489875.4991475176
aa(lp1755
F808887.3651953563
aF3489931.061758641
aa(lp1756
F808855.6151318569
aF3490034.2494650222
aa(lp1757
F808927.0527747301
aF3490272.374941269
aa(lp1758
F808688.9272984806
aF3490439.0627746433
aa(lp1759
F808506.3644333556
aF3490621.625639772
aa(lp1760
F808331.7390841041
aF3490716.875830272
aa(lp1761
F808117.4261554778
aF3490883.5636636466
aa(lp1762
F808038.0509967282
aF3490970.8763382714
aa(lp1763
F807739.071232101
aF3491292.1803662963
aa(lp1764
F807567.0917214742
aF3491374.862823328
aa(lp1765
F807520.789545537
aF3491434.394192392
aa(lp1766
F807408.3414039733
aF3491411.2431044225
aa(lp1767
F807335.5808417853
aF3491513.7693511415
aa(lp1768
F807256.2056830367
aF3491622.910194427
aa(lp1769
F807133.8356466293
aF3491712.2072480153
aa(lp1770
F807008.1583119407
aF3491834.577284422
aa(lp1771
F806925.4758549109
aF3491880.879460361
aa(lp1772
F806869.2517841281
aF3491933.7962328605
aa(lp1773
F806660.8919924069
aF3492214.9165867697
aa(lp1774
F806598.0533250635
aF3492304.213640364
aa(lp1775
F806598.0533250635
aF3492350.515816303
aa(lp1776
F806594.7460267823
aF3492433.198273331
aa(lp1777
F806558.3657456888
aF3492502.6515372396
aa(lp1778
F806505.44897319
aF3492568.797502866
aa(lp1779
F806498.8343766257
aF3492654.787258176
aa(lp1780
F806498.8343766257
aF3492704.3967323992
aa(lp1781
F806452.5322006885
aF3492747.3916100543
aa(lp1782
F806416.151919595
aF3492797.001084272
aa(lp1783
F806373.157041939
aF3492843.303260207
aa(lp1784
F806320.2402694384
aF3492879.6835413054
aa(lp1785
F806247.4797072513
aF3492922.6784189604
aa(lp1786
F806170.171609926
aF3492947.620960163
aa(lp1787
F806097.411047739
aF3492934.391767038
aa(lp1788
F806051.1088717999
aF3492881.474994542
aa(lp1789
F806004.8066958627
aF3492960.8501532916
aa(lp1790
F805925.4315371141
aF3493066.683698289
aa(lp1791
F805879.129361175
aF3493165.902646728
aa(lp1792
F805786.5250092987
aF3493218.8194192294
aa(lp1793
F805656.1715958146
aF3493214.732480498
aa(lp1794
F805576.7964370651
aF3493128.742725188
aa(lp1795
F805487.49938347
aF3493062.5967595577
aa(lp1796
F805414.738821283
aF3492983.221600808
aa(lp1797
F805348.5928556584
aF3492874.0807575267
aa(lp1798
F805322.1344694076
aF3492827.7785815876
aa(lp1799
F805262.6031003445
aF3492827.7785815876
aa(lp1800
F805183.227941595
aF3492784.7837039325
aa(lp1801
F805150.1549587827
aF3492774.861809088
aa(lp1802
F805070.7798000304
aF3492788.0910022166
aa(lp1803
F805050.9360103449
aF3492741.7888262775
aa(lp1804
F805004.6338344058
aF3492708.715843467
aa(lp1805
F804948.409763623
aF3492642.569877837
aa(lp1806
F804915.3367808135
aF3492596.2677019034
aa(lp1807
F804862.420008312
aF3492563.1947190873
aa(lp1808
F804849.1908151852
aF3492503.663350025
aa(lp1809
F804925.2586756563
aF3492477.2049637754
aa(lp1810
F804994.7119395621
aF3492430.9027878363
aa(lp1811
F805080.7016948741
aF3492358.142225649
aa(lp1812
F805140.2330639372
aF3492321.7619445566
aa(lp1813
F805203.0717312815
aF3492229.157592682
aa(lp1814
F805246.0666089393
aF3492129.9386442434
aa(lp1815
F805295.6760831568
aF3492110.094854556
aa(lp1816
F805351.9001539387
aF3492040.6415906474
aa(lp1817
F805431.2753126882
aF3491981.1102215853
aa(lp1818
F805494.1139800325
aF3491931.5007473677
aa(lp1819
F805517.265068002
aF3491871.9693783037
aa(lp1820
F805576.7964370651
aF3491868.6620800197
aa(lp1821
F805659.4788940959
aF3491895.1204662733
aa(lp1822
F805738.8540528473
aF3491895.1204662733
aa(lp1823
F805821.5365098799
aF3491822.359904086
aa(lp1824
F805818.2292115968
aF3491719.833657367
aa(lp1825
F805874.4532823786
aF3491670.224183146
aa(lp1826
F805950.5211428469
aF3491614.000112366
aa(lp1827
F806029.8963015983
aF3491557.776041586
aa(lp1828
F806112.578758629
aF3491488.3227776773
aa(lp1829
F806191.9539173804
aF3491448.6351983007
aa(lp1830
F806211.7977070669
aF3491349.416249864
aa(lp1831
F806264.7144795675
aF3491293.1921790857
aa(lp1832
F806354.0115331626
aF3491227.0462134555
aa(lp1833
F806393.6991125373
aF3491167.514844397
aa(lp1834
F806420.1574987872
aF3491068.2958959565
aa(lp1835
F806420.1574987872
aF3490982.3061406445
aa(lp1836
F806416.8502005069
aF3490909.5455784574
aa(lp1837
F806367.2407262865
aF3490850.0142093953
aa(lp1838
F806400.3137090988
aF3490790.4828403313
aa(lp1839
F806453.2304816004
aF3490691.2638918906
aa(lp1840
F806469.7669730056
aF3490585.430346893
aa(lp1841
F806459.8450781619
aF3490492.825995015
aa(lp1842
F806443.3085867567
aF3490390.299748296
aa(lp1843
F806473.0742712859
aF3490281.1589050163
aa(lp1844
F806529.2983420687
aF3490203.1066655796
aa(lp1845
F806579.5692759454
aF3490131.6690227017
aa(lp1846
F806632.4860484442
aF3490070.8147343304
aa(lp1847
F806727.7362389443
aF3490004.6687687
aa(lp1848
F806830.9239453198
aF3489922.6477713287
aa(lp1849
F806886.4865564452
aF3489859.147644324
aa(lp1850
F806894.4240723206
aF3489766.5432924516
aa(lp1851
F806920.8824585713
aF3489636.8971998226
aa(lp1852
F806915.5907813227
aF3489515.1886230744
aa(lp1853
F806889.1323950719
aF3489393.4800463263
aa(lp1854
F806873.2573633213
aF3489292.938178573
aa(lp1855
F806857.3823315697
aF3489168.583763199
aa(lp1856
F806849.4448156971
aF3489075.9794113245
aa(lp1857
F806838.8614611952
aF3489001.8959298246
aa(lp1858
F806825.6322680712
aF3488917.2290938217
aa(lp1859
F806793.8822045717
aF3488896.0623848215
aa(lp1860
F806759.4863024456
aF3488840.4997737
aa(lp1861
F806746.2571093217
aF3488737.3120673243
aa(lp1862
F806748.9029479455
aF3488647.353554072
aa(lp1863
F806780.653011445
aF3488586.499265695
aa(lp1864
F806828.278106695
aF3488560.040879447
aa(lp1865
F806862.6740088211
aF3488509.7699455675
aa(lp1866
F806899.7157495711
aF3488438.332302695
aa(lp1867
F806897.0699109472
aF3488343.082112195
aa(lp1868
F806878.5490405699
aF3488231.956889944
aa(lp1869
F806862.6740088211
aF3488141.9983766973
aa(lp1870
F806836.2156225704
aF3488054.685702067
aa(lp1871
F806809.7572363196
aF3487975.3105433173
aa(lp1872
F806778.0071728211
aF3487914.4562549423
aa(lp1873
F806730.382077571
aF3487869.47699832
aa(lp1874
F806690.6944981962
aF3487856.247805191
aa(lp1875
F806621.902693944
aF3487843.018612068
aa(lp1876
F806574.277598694
aF3487893.289545942
aa(lp1877
F806524.00666482
aF3487890.6437073145
aa(lp1878
F806489.6107626939
aF3487866.831159694
aa(lp1879
F806500.1941171931
aF3487819.206064442
aa(lp1880
F806561.04840557
aF3487758.351776069
aa(lp1881
F806629.8402098194
aF3487676.330778694
aa(lp1882
F806621.902693944
aF3487594.3097813185
aa(lp1883
F806582.2151145693
aF3487469.955365943
aa(lp1884
F806508.1316330694
aF3487398.517723065
aa(lp1885
F806457.8606991945
aF3487377.3510140646
aa(lp1886
F806391.714733569
aF3487374.7051754426
aa(lp1887
F806338.7979610683
aF3487395.871884443
aa(lp1888
F806285.8811885668
aF3487385.28852994
aa(lp1889
F806230.3185774442
aF3487350.8926278166
aa(lp1890
F806209.1518684421
aF3487292.6841780674
aa(lp1891
F806217.0893843174
aF3487186.8506330643
aa(lp1892
F806251.4852864435
aF3487120.7046674397
aa(lp1893
F806291.1728658183
aF3487086.3087653164
aa(lp1894
F806296.4645430697
aF3487033.391992815
aa(lp1895
F806349.3813155675
aF3487030.746154193
aa(lp1896
F806399.6522494452
aF3487004.2877679393
aa(lp1897
F806431.4023129437
aF3486853.4749663174
aa(lp1898
F806431.4023129437
aF3486755.5789371897
aa(lp1899
F806418.1731198179
aF3486647.0995535664
aa(lp1900
F806399.6522494452
aF3486533.328492688
aa(lp1901
F806362.6105086943
aF3486448.661656685
aa(lp1902
F806304.4020589422
aF3486398.390722811
aa(lp1903
F806267.3603181923
aF3486414.265754562
aa(lp1904
F806193.2768366942
aF3486414.265754562
aa(lp1905
F806119.1933551934
aF3486401.036561437
aa(lp1906
F806066.2765826918
aF3486371.9323365632
aa(lp1907
F806055.6932281926
aF3486271.3904688098
aa(lp1908
F806068.9224213166
aF3486229.0570508093
aa(lp1909
F806042.4640350686
aF3486136.4526989367
aa(lp1910
F806055.6932281926
aF3486080.8900878094
aa(lp1911
F806076.8599371919
aF3486020.0357994363
aa(lp1912
F806026.589003317
aF3485940.660640683
aa(lp1913
F805960.4430376925
aF3485885.0980295595
aa(lp1914
F805923.4012969416
aF3485808.368709432
aa(lp1915
F805899.5887493156
aF3485736.9310665596
aa(lp1916
F805774.705166216
aF3485559.6598786823
aa(lp1917
F805698.5050138161
aF3485460.176346382
aa(lp1918
F805635.0048868153
aF3485356.4594722837
aa(lp1919
F805639.2382286144
aF3485295.076016182
aa(lp1920
F805679.4549757158
aF3485244.2759145834
aa(lp1921
F805704.8550265152
aF3485199.825825682
aa(lp1922
F805704.8550265152
aF3485136.3256986793
aa(lp1923
F805666.7549503166
aF3485089.758938879
aa(lp1924
F805639.2382286144
aF3485062.242217183
aa(lp1925
F805599.021481513
aF3485043.19217908
aa(lp1926
F805571.5047598137
aF3485007.2087737788
aa(lp1927
F805535.5213545151
aF3484966.992026683
aa(lp1928
F805510.1213037157
aF3484935.2419631816
aa(lp1929
F805482.6045820136
aF3484933.125292279
aa(lp1930
F805467.7878857143
aF3484962.758684883
aa(lp1931
F805406.4044296136
aF3484971.225368483
aa(lp1932
F805368.3043534141
aF3484964.87535578
aa(lp1933
F805340.7876317129
aF3484947.94198858
aa(lp1934
F805338.6709608147
aF3484901.3752287813
aa(lp1935
F805317.5042518126
aF3484871.741836183
aa(lp1936
F805273.0541629139
aF3484835.7584308814
aa(lp1937
F805230.7207449125
aF3484804.00836738
aa(lp1938
F805207.4373650132
aF3484763.7916202787
aa(lp1939
F805207.4373650132
aF3484708.75817688
aa(lp1940
F805226.4874031125
aF3484626.208011778
aa(lp1941
F805220.1373904133
aF3484573.2912392784
aa(lp1942
F805198.9706814131
aF3484526.7244794797
aa(lp1943
F805160.8706052145
aF3484497.0910868794
aa(lp1944
F805101.6038200138
aF3484465.341023378
aa(lp1945
F805078.3204401117
aF3484446.290985277
aa(lp1946
F805082.5537819117
aF3484367.9741619807
aa(lp1947
F805084.6704528136
aF3484308.7073767763
aa(lp1948
F805076.2037692145
aF3484255.7906042766
aa(lp1949
F805050.8037184123
aF3484236.740566179
aa(lp1950
F805019.0536549129
aF3484230.3905534763
aa(lp1951
F805040.2203639122
aF3484202.873831775
aa(lp1952
F805088.9037946137
aF3484190.1738063805
aa(lp1953
F805110.070503613
aF3484147.8403883763
aa(lp1954
F805088.9037946137
aF3484097.0402867775
aa(lp1955
F805055.0370602123
aF3484065.2902232762
aa(lp1956
F805019.0536549129
aF3484020.840134375
aa(lp1957
F804976.7202369114
aF3483982.740058176
aa(lp1958
F804930.1534771128
aF3483950.9899946786
aa(lp1959
F804885.7033882113
aF3483915.0065893773
aa(lp1960
F804832.7866157107
aF3483919.2399311773
aa(lp1961
F804784.103185012
aF3483944.639981976
aa(lp1962
F804746.0031088097
aF3483965.806690976
aa(lp1963
F804693.086336311
aF3483978.506716376
aa(lp1964
F804646.5195765104
aF3483959.4566782787
aa(lp1965
F804621.119525711
aF3483910.7732475773
aa(lp1966
F804616.886183911
aF3483845.1564496756
aa(lp1967
F804597.8361458117
aF3483796.473018976
aa(lp1968
F804593.6028040117
aF3483745.672917377
aa(lp1969
F804574.5527659096
aF3483716.039524777
aa(lp1970
F804536.4526897101
aF3483705.456170274
aa(lp1971
F804508.9359680107
aF3483667.3560940754
aa(lp1972
F804508.9359680107
aF3483622.906005174
aa(lp1973
F804530.1026770109
aF3483580.5725871753
aa(lp1974
F804585.1361204088
aF3483578.455916278
aa(lp1975
F804610.5361712109
aF3483553.055865474
aa(lp1976
F804619.002854811
aF3483504.3724347726
aa(lp1977
F804614.769513011
aF3483453.572333174
aa(lp1978
F804580.9027786097
aF3483428.1722823735
aa(lp1979
F804559.7360696094
aF3483387.955535272
aa(lp1980
F804540.6860315101
aF3483322.3387373723
aa(lp1981
F804515.2859807108
aF3483269.4219648764
aa(lp1982
F804496.2359426115
aF3483184.7551288735
aa(lp1983
F804479.3025754094
aF3483117.021660069
aa(lp1984
F804451.78585371
aF3483049.288191272
aa(lp1985
F804460.2525373101
aF3482998.488089673
aa(lp1986
F804504.7026262116
aF3482977.321380673
aa(lp1987
F804563.9694114123
aF3482979.43805157
aa(lp1988
F804627.4695384102
aF3482985.788064273
aa(lp1989
F804665.5696146125
aF3483009.0714441705
aa(lp1990
F804686.7363236118
aF3483045.054849472
aa(lp1991
F804714.2530453112
aF3483061.988216672
aa(lp1992
F804796.8032104112
aF3483059.871545773
aa(lp1993
F804873.0033628121
aF3483045.054849472
aa(lp1994
F804917.4534517135
aF3483034.4714949746
aa(lp1995
F804978.8369078115
aF3483017.5381277706
aa(lp1996
F805010.5869713137
aF3482992.1380769704
aa(lp1997
F805033.870351213
aF3482932.8712917715
aa(lp1998
F805071.9704274144
aF3482901.12122827
aa(lp1999
F805088.9037946137
aF3482839.7377721686
aa(lp2000
F805105.8371618129
aF3482780.4709869716
aa(lp2001
F805124.8871999132
aF3482710.62084727
aa(lp2002
F805143.9372380124
aF3482655.587403871
aa(lp2003
F805146.0539089125
aF3482604.7873022687
aa(lp2004
F805156.6372634117
aF3482553.98720067
aa(lp2005
F805137.5872253124
aF3482498.953757271
aa(lp2006
F805122.7705290131
aF3482420.6369339693
aa(lp2007
F805122.7705290131
aF3482355.0201360695
aa(lp2008
F805097.3704782138
aF3482316.920059871
aa(lp2009
F805063.5037438115
aF3482280.9366545677
aa(lp2010
F805061.3870729124
aF3482225.903211171
aa(lp2011
F805046.5703766122
aF3482179.3364513665
aa(lp2012
F805004.2369586136
aF3482130.6530206706
aa(lp2013
F804978.8369078115
aF3482092.5529444665
aa(lp2014
F804985.1869205115
aF3482033.2861592676
aa(lp2015
F805002.1202877136
aF3481993.0694121663
aa(lp2016
F805059.2704020124
aF3481986.719399469
aa(lp2017
F805097.3704782138
aF3481954.9693359677
aa(lp2018
F805158.7539343117
aF3481933.8026269674
aa(lp2019
F805188.3873269139
aF3481942.2693105675
aa(lp2020
F805220.1373904133
aF3481944.3859814703
aa(lp2021
F805262.4708084147
aF3481935.9192978702
aa(lp2022
F805298.4542137133
aF3481923.2192724645
aa(lp2023
F805330.2042772155
aF3481904.169234369
aa(lp2024
F805361.954340714
aF3481908.402576167
aa(lp2025
F805389.4710624134
aF3481929.5692851674
aa(lp2026
F805408.5211005136
aF3481931.68595607
aa(lp2027
F805442.387834915
aF3481916.8692597672
aa(lp2028
F805493.1879365155
aF3481891.469208969
aa(lp2029
F805499.5379492138
aF3481834.319094667
aa(lp2030
F805548.2213799143
aF3481804.6857020687
aa(lp2031
F805592.6714688158
aF3481770.8189676683
aa(lp2032
F805628.6548741153
aF3481726.368878767
aa(lp2033
F805620.1881905152
aF3481671.3354353644
aa(lp2034
F805628.6548741153
aF3481620.5353337657
aa(lp2035
F805649.8215831146
aF3481571.851903064
aa(lp2036
F805675.2216339167
aF3481521.0518014655
aa(lp2037
F805683.6883175159
aF3481478.718383467
aa(lp2038
F805664.6382794138
aF3481425.8016109653
aa(lp2039
F805685.8049884159
aF3481364.4181548636
aa(lp2040
F805726.0217355154
aF3481303.034698764
aa(lp2041
F805757.771799014
aF3481260.7012807652
aa(lp2042
F805753.5384572148
aF3481205.6678373665
aa(lp2043
F805721.7883937154
aF3481186.6177992634
aa(lp2044
F805662.5216085138
aF3481163.3344193622
aa(lp2045
F805641.3548995145
aF3481123.1176722664
aa(lp2046
F805607.4881651159
aF3481104.0676341634
aa(lp2047
F805565.1547471145
aF3481099.8342923634
aa(lp2048
F805539.7546963152
aF3481061.734216165
aa(lp2049
F805531.288012715
aF3481013.0507854633
aa(lp2050
F805503.7712910129
aF3480987.650734665
aa(lp2051
F805448.737847615
aF3480987.650734665
aa(lp2052
F805397.9377460135
aF3481004.584101863
aa(lp2053
F805342.9043026147
aF3481006.700772766
aa(lp2054
F805338.6709608147
aF3480970.7173674647
aa(lp2055
F805353.4876571149
aF3480894.517215062
aa(lp2056
F805400.0544169135
aF3480843.717113463
aa(lp2057
F805395.8210751135
aF3480811.967049962
aa(lp2058
F805412.7544423128
aF3480761.166948363
aa(lp2059
F805455.0878603142
aF3480710.3668467645
aa(lp2060
F805484.7212529164
aF3480648.983390663
aa(lp2061
F805552.4547217144
aF3480568.54989646
aa(lp2062
F805582.0881143166
aF3480530.4498202614
aa(lp2063
F805599.0214815158
aF3480496.583085861
aa(lp2064
F805635.0048868153
aF3480494.4664149582
aa(lp2065
F805668.8716212166
aF3480500.816427661
aa(lp2066
F805706.9716974152
aF3480513.5164530613
aa(lp2067
F805753.5384572148
aF3480528.3331493624
aa(lp2068
F805814.9219133155
aF3480524.099807564
aa(lp2069
F805884.7720530163
aF3480475.4163768627
aa(lp2070
F805893.2387366155
aF3480384.3995281626
aa(lp2071
F805872.0720276162
aF3480310.3160466608
aa(lp2072
F805840.3219641168
aF3480206.5991725605
aa(lp2073
F805812.8052424155
aF3480157.915741861
aa(lp2074
F805774.705166216
aF3480136.7490328606
aa(lp2075
F805717.5550519153
aF3480128.2823492605
aa(lp2076
F805683.6883175159
aF3480128.2823492605
aa(lp2077
F805656.1715958146
aF3480143.099045558
aa(lp2078
F805601.1381524159
aF3480153.682400061
aa(lp2079
F805569.3880889146
aF3480115.5823238604
aa(lp2080
F805575.7381016165
aF3480064.782222258
aa(lp2081
F805592.6714688158
aF3480003.398766162
aa(lp2082
F805607.4881651159
aF3479944.1319809575
aa(lp2083
F805624.4215323152
aF3479874.2818412576
aa(lp2084
F805618.0715196151
aF3479804.431701556
aa(lp2085
F805618.0715196151
aF3479747.28158726
aa(lp2086
F805650.2184589086
aF3479685.89813116
aa(lp2087
F805679.3226837842
aF3479659.4397449065
aa(lp2088
F805681.9685224108
aF3479606.522972405
aa(lp2089
F805666.0934906602
aF3479545.6686840337
aa(lp2090
F805647.5726202847
aF3479513.9186205324
aa(lp2091
F805605.2392022833
aF3479495.3977501597
aa(lp2092
F805568.1974615334
aF3479479.522718409
aa(lp2093
F805544.3849139092
aF3479447.772654908
aa(lp2094
F805520.5723662833
aF3479405.4392369073
aa(lp2095
F805475.5931096599
aF3479365.7516575307
aa(lp2096
F805427.9680144098
aF3479357.8141416553
aa(lp2097
F805396.2179509085
aF3479331.3557554074
aa(lp2098
F805401.5096281571
aF3479289.0223374087
aa(lp2099
F805427.9680144098
aF3479241.397242157
aa(lp2100
F805480.8847869085
aF3479220.2305331565
aa(lp2101
F805525.8640435338
aF3479201.709662784
aa(lp2102
F805584.072493284
aF3479207.0013400316
aa(lp2103
F805631.6975885341
aF3479207.0013400316
aa(lp2104
F805674.0310065355
aF3479204.355501406
aa(lp2105
F805724.3019404095
aF3479169.9595992826
aa(lp2106
F805753.4061652841
aF3479130.272019904
aa(lp2107
F805806.3229377856
aF3479127.6261812784
aa(lp2108
F805867.1772261597
aF3479082.6469246577
aa(lp2109
F805917.4481600346
aF3479040.3135066535
aa(lp2110
F805935.9690304119
aF3478974.167541029
aa(lp2111
F805957.1357394112
aF3478878.9173505288
aa(lp2112
F805983.594125662
aF3478815.41722353
aa(lp2113
F805988.8858029107
aF3478775.7296441533
aa(lp2114
F805980.9482870353
aF3478733.3962261546
aa(lp2115
F805962.4274166599
aF3478693.708646776
aa(lp2116
F805975.6566097867
aF3478648.729390152
aa(lp2117
F806004.7608346613
aF3478627.5626811516
aa(lp2118
F806017.9900277853
aF3478601.1042949036
aa(lp2119
F806049.7400912847
aF3478601.1042949036
aa(lp2120
F806081.490154786
aF3478582.583424531
aa(lp2121
F806115.8860569093
aF3478545.5416837763
aa(lp2122
F806163.5111521594
aF3478508.4999430254
aa(lp2123
F806219.0737632848
aF3478466.166525027
aa(lp2124
F806277.2822130378
aF3478429.124784276
aa(lp2125
F806340.7823400386
aF3478392.083043525
aa(lp2126
F806404.2824670365
aF3478373.5621731523
aa(lp2127
F806483.6576257888
aF3478373.5621731523
aa(lp2128
F806557.7411072887
aF3478384.1455276497
aa(lp2129
F806637.1162660383
aF3478394.7288821526
aa(lp2130
F806720.0812986344
aF3478406.3663387615
aaa.