(lp0
(lp1
(lp2
F120.58796963798811
aF31.251981876166415
aa(lp3
F120.60829485672357
aF31.249312832647636
aa(lp4
F120.61826586699283
aF31.242093035106464
aa(lp5
F120.62534719719181
aF31.237843317093724
aa(lp6
F120.62510831938519
aF31.22696058634869
aa(lp7
F120.6231380398053
aF31.219862821850413
aa(lp8
F120.62522779980257
aF31.20151216063123
aa(lp9
F120.63208943172894
aF31.19546546785226
aa(lp10
F120.63709416381063
aF31.18321653873591
aa(lp11
F120.63427738572433
aF31.178010463165286
aa(lp12
F120.62575384552369
aF31.170574284897633
aa(lp13
F120.61390766980276
aF31.162514581686175
aa(lp14
F120.60796564313576
aF31.158486471520884
aa(lp15
F120.60182682641833
aF31.15265998625893
aa(lp16
F120.59591473460763
aF31.14863131390577
aa(lp17
F120.58998851546815
aF31.144600956190928
aa(lp18
F120.57769463825747
aF31.13294294647227
aa(lp19
F120.5733782938969
aF31.124231119543122
aa(lp20
F120.56960081956863
aF31.120012607808295
aa(lp21
F120.56968066439593
aF31.11182661541744
aa(lp22
F120.56869357812693
aF31.103736107030645
aa(lp23
F120.57007647599161
aF31.097255271986384
aa(lp24
F120.57251086596784
aF31.090687223846473
aa(lp25
F120.57486188814502
aF31.083214498902844
aa(lp26
F120.57258013221825
aF31.07341391535041
aa(lp27
F120.55934081737094
aF31.06274606532444
aa(lp28
F120.55738637018386
aF31.05564286488029
aa(lp29
F120.5469639488829
aF31.050182794335164
aa(lp30
F120.52934363456511
aF31.03898280282843
aa(lp31
F120.51643081298704
aF31.031006670337025
aa(lp32
F120.4977349991148
aF31.01989295551793
aa(lp33
F120.48806919790438
aF31.011637149330518
aa(lp34
F120.4617611475481
aF31.00026034710118
aa(lp35
F120.44554898739617
aF30.991651789835853
aa(lp36
F120.43256022500128
aF30.9827664119039
aa(lp37
F120.41635598052588
aF30.974155249287325
aa(lp38
F120.4012255907576
aF30.965447177554832
aa(lp39
F120.38030898353668
aF30.962686551492208
aa(lp40
F120.36326530649461
aF30.95595501050421
aa(lp41
F120.32970138849696
aF30.946986485710124
aa(lp42
F120.3123315329441
aF30.937552401408865
aa(lp43
F120.2956291030646
aF30.933509699348967
aa(lp44
F120.28436771958464
aF30.9299138984653
aa(lp45
F120.26367852515438
aF30.928930460332616
aa(lp46
F120.2460007583271
aF30.925875347216838
aa(lp47
F120.22531911641546
aF30.924880192247965
aa(lp48
F120.2060230878671
aF30.926492511834457
aa(lp49
F120.17042287845317
aF30.93673304272664
aa(lp50
F120.14563624533727
aF30.946970942709
aa(lp51
F120.10862253881007
aF30.963667387929757
aa(lp52
F120.09067004072645
aF30.97695826589254
aa(lp53
F120.05878642240783
aF30.991396617208498
aa(lp54
F120.02943142009168
aF31.009249105595675
aa(lp55
F120.00277556212947
aF31.022328299947876
aa(lp56
F119.98510345598176
aF31.038303776618832
aa(lp57
F119.96688822461782
aF31.058860931026167
aa(lp58
F119.94920810518559
aF31.074829487053755
aa(lp59
F119.93970711392508
aF31.08650024312903
aa(lp60
F119.93158433193905
aF31.10077891784214
aa(lp61
F119.92418991834732
aF31.121353911093014
aa(lp62
F119.91499841642207
aF31.154786054652234
aa(lp63
F119.90784407898241
aF31.168078707581248
aa(lp64
F119.8973520474492
aF31.180730007590174
aa(lp65
F119.9022295996115
aF31.194861028630765
aa(lp66
F119.897307829725
aF31.208875736444526
aa(lp67
F119.88964336138855
aF31.236730677978294
aa(lp68
F119.89308498206269
aF31.257333576098215
aa(lp69
F119.90853164311473
aF31.287858028060587
aa(lp70
F119.92641376433684
aF31.310928518779033
aa(lp71
F119.94622458154768
aF31.33202291188944
aa(lp72
F119.9599415475768
aF31.34724990085552
aa(lp73
F119.9724930700406
aF31.361664297288346
aa(lp74
F119.97955007265786
aF31.375611657205233
aa(lp75
F119.9973484993259
aF31.39776925300452
aa(lp76
F120.00429944649923
aF31.410820071877644
aa(lp77
F120.00618094117941
aF31.427004519863814
aa(lp78
F120.00451285765025
aF31.44075370002605
aa(lp79
F120.01641522151442
aF31.458848938942612
aa(lp80
F120.02769517218745
aF31.471544550999827
aa(lp81
F120.0376876927786
aF31.482528128539823
aa(lp82
F120.05433403162593
aF31.47572420031327
aa(lp83
F120.05943782593697
aF31.46350487801901
aa(lp84
F120.05914679895056
aF31.451732122299216
aa(lp85
F120.06031102552095
aF31.424402746000137
aa(lp86
F120.059510994581
aF31.40813352630903
aa(lp87
F120.055351011151
aF31.39122384060531
aa(lp88
F120.05604314617902
aF31.378462379537517
aa(lp89
F120.05715280809243
aF31.369287984232205
aa(lp90
F120.06448451282931
aF31.36687509985768
aa(lp91
F120.07102586896089
aF31.3763264295888
aa(lp92
F120.0735726543613
aF31.388825315424963
aa(lp93
F120.0813103665988
aF31.39908527492662
aa(lp94
F120.08906001034939
aF31.40026370078555
aa(lp95
F120.11169362820526
aF31.398403623231765
aa(lp96
F120.12529069527704
aF31.393655045875263
aa(lp97
F120.1365858762367
aF31.4063428455573
aa(lp98
F120.13493268544715
aF31.420096700382043
aa(lp99
F120.13208742254383
aF31.442112936450876
aa(lp100
F120.12762042667958
aF31.45972785223659
aa(lp101
F120.12227632581205
aF31.479229789223393
aa(lp102
F120.1230003695524
aF31.494604968491632
aa(lp103
F120.12556291818537
aF31.507101747937202
aa(lp104
F120.14205547880563
aF31.517541296722516
aa(lp105
F120.17009879805194
aF31.53338017371643
aa(lp106
F120.18129509717211
aF31.545165986949705
aa(lp107
F120.19047585192506
aF31.548941684495563
aa(lp108
F120.20236475894201
aF31.547960616086606
aa(lp109
F120.21272301018979
aF31.543470726796592
aa(lp110
F120.21651249570385
aF31.538619296473776
aa(lp111
F120.21922478635074
aF31.524776579831233
aa(lp112
F120.21524671651395
aF31.5096724847387
aa(lp113
F120.21679806875122
aF31.485946172073664
aa(lp114
F120.21346941181388
aF31.46715893867646
aa(lp115
F120.20228527979648
aF31.446298209674246
aa(lp116
F120.19896460215793
aF31.4275117710494
aa(lp117
F120.20373475497023
aF31.412590169774134
aa(lp118
F120.2128104563444
aF31.39730745323051
aa(lp119
F120.22229146275694
aF31.394705704501426
aa(lp120
F120.23877752202125
aF31.405136142282032
aa(lp121
F120.24900548614774
aF31.41790420199716
aa(lp122
F120.26872207540903
aF31.42806026967052
aa(lp123
F120.2905118207714
aF31.437131088099942
aa(lp124
F120.31325520890346
aF31.44521029130533
aa(lp125
F120.33385666160414
aF31.453468606560847
aa(lp126
F120.3534950684884
aF31.45363274467368
aa(lp127
F120.36632062319534
aF31.451643456755885
aa(lp128
F120.37742773935604
aF31.444350001159847
aa(lp129
F120.38787403582913
aF31.431665174564518
aa(lp130
F120.3903505522664
aF31.416018580947277
aa(lp131
F120.3966928602159
aF31.396413646501397
aa(lp132
F120.39387288390303
aF31.382118868385252
aa(lp133
F120.38567247236624
aF31.368286035876018
aa(lp134
F120.37284267111443
aF31.361196844389653
aa(lp135
F120.35539205879815
aF31.36085715399761
aa(lp136
F120.34558452607187
aF31.36077289085929
aa(lp137
F120.33644227161608
aF31.357007606652207
aa(lp138
F120.33146864673358
aF31.35197371992149
aa(lp139
F120.32834833460385
aF31.344066213303805
aa(lp140
F120.3223190896219
aF31.33004348860303
aa(lp141
F120.31229624138405
aF31.319078465131412
aa(lp142
F120.29732525756256
aF31.312162117898072
aa(lp143
F120.28764375628704
aF31.30389780087447
aa(lp144
F120.28032409206362
aF31.297243117685237
aa(lp145
F120.28721614295803
aF31.291218473096027
aa(lp146
F120.30767334330805
aF31.29858190234329
aa(lp147
F120.31951115546683
aF31.306669213914954
aa(lp148
F120.32942052455728
aF31.316732318632052
aa(lp149
F120.33546115882315
aF31.32167319339224
aa(lp150
F120.34460382546696
aF31.325441967987775
aa(lp151
F120.35343560015346
aF31.326514695893895
aa(lp152
F120.36194869023205
aF31.32488491863423
aa(lp153
F120.36883266203348
aF31.318857999387244
aa(lp154
F120.36807367999197
aF31.31256233214107
aa(lp155
F120.35795192267165
aF31.30070665135886
aa(lp156
F120.35160054701936
aF31.293065856790353
aa(lp157
F120.34470508740787
aF31.290017088919864
aa(lp158
F120.33845952880264
aF31.283277834986695
aa(lp159
F120.33684673114661
aF31.27887045870967
aa(lp160
F120.34082578136376
aF31.2758131921471
aa(lp161
F120.34922465472215
aF31.273286730519096
aa(lp162
F120.35556596397296
aF31.271840607800673
aa(lp163
F120.36202831893816
aF31.271295907869348
aa(lp164
F120.37407271612577
aF31.263010201680792
aa(lp165
F120.37794578036834
aF31.25905098172456
aa(lp166
F120.38029657391421
aF31.25158623645358
aa(lp167
F120.38212410610487
aF31.239624661573032
aa(lp168
F120.37331160810616
aF31.229471300361016
aa(lp169
F120.36329662999404
aF31.21851208842791
aa(lp170
F120.36221145683061
aF31.209520901623172
aa(lp171
F120.36790704443831
aF31.202680192777322
aa(lp172
F120.37544398046607
aF31.202043477228838
aa(lp173
F120.3845791844464
aF31.205809593825318
aa(lp174
F120.39705153903608
aF31.210200186099673
aa(lp175
F120.4150183185903
aF31.215034834209355
aa(lp176
F120.42954149484001
aF31.218338707340067
aa(lp177
F120.44469817345933
aF31.217956140391212
aa(lp178
F120.45728920697645
aF31.214156512406685
aa(lp179
F120.46662632033372
aF31.210630352891304
aa(lp180
F120.47038595099464
aF31.205769984258406
aa(lp181
F120.46391975916747
aF31.197242006035772
aa(lp182
F120.46249289896899
aF31.185549155936375
aa(lp183
F120.4574328748649
aF31.170538101464928
aa(lp184
F120.4538570564797
aF31.15903060963593
aa(lp185
F120.44782039647288
aF31.145012551109815
aa(lp186
F120.44211855313443
aF31.133690831798443
aa(lp187
F120.43511384113003
aF31.12066306900418
aa(lp188
F120.42833765717226
aF31.10942928100589
aa(lp189
F120.42455956215281
aF31.105205916795047
aa(lp190
F120.41822667919928
aF31.106654823116923
aa(lp191
F120.40513025331252
aF31.115036106712445
aa(lp192
F120.39160156426495
aF31.119823615893445
aa(lp193
F120.38279298775514
aF31.118755874237753
aa(lp194
F120.37300469071641
aF31.109591109022215
aa(lp195
F120.36344464177895
aF31.102223688964283
aa(lp196
F120.35763694101858
aF31.090000344920778
aa(lp197
F120.34646742087358
aF31.06913998974736
aa(lp198
F120.34528363576916
aF31.059247999809624
aa(lp199
F120.33723506348855
aF31.04629912565946
aa(lp200
F120.33808643775855
aF31.03532270264892
aa(lp201
F120.34656263745177
aF31.01552628854944
aa(lp202
F120.37712071485544
aF30.999304900338814
aa(lp203
F120.39096069251889
aF30.997217648779117
aa(lp204
F120.40575369048742
aF30.994143283120085
aa(lp205
F120.41972153936821
aF31.0111264830285
aa(lp206
F120.43735600394999
aF31.040512927291758
aa(lp207
F120.45239772232078
aF31.057400659477672
aa(lp208
F120.46090917127678
aF31.073936264588816
aa(lp209
F120.48037917105962
aF31.091353767640662
aa(lp210
F120.49319646382794
aF31.10751321349411
aa(lp211
F120.51350957485968
aF31.11394917067254
aa(lp212
F120.53424411942687
aF31.114887126142786
aa(lp213
F120.5454479228578
aF31.126643961373503
aa(lp214
F120.55161311950059
aF31.14155654219072
aa(lp215
F120.55637029719215
aF31.153866104378466
aa(lp216
F120.56243631723065
aF31.16788195518403
aa(lp217
F120.57342766593212
aF31.177831394289125
aa(lp218
F120.58739711832774
aF31.176626999187523
aa(lp219
F120.60830198576303
aF31.18753653139302
aa(lp220
F120.60480435397497
aF31.203282395477185
aa(lp221
F120.60334895535205
aF31.21794504345378
aa(lp222
F120.59877674224462
aF31.233786143804796
aa(lp223
F120.59653934262012
aF31.242158822609007
aa(lp224
F120.58796963798811
aF31.251981876166415
aaa(lp225
(lp226
F120.1959854232314
aF31.117200082057206
aa(lp227
F120.20125928500148
aF31.11585324667342
aa(lp228
F120.20802921114036
aF31.108928609134473
aa(lp229
F120.22705694572976
aF31.09553328981252
aa(lp230
F120.240802690277
aF31.083483045254898
aa(lp231
F120.26465618703845
aF31.065130954799418
aa(lp232
F120.28001511764555
aF31.057482199648913
aa(lp233
F120.29814825445628
aF31.064132401100004
aa(lp234
F120.30148164504917
aF31.073845473406106
aa(lp235
F120.30932075342962
aF31.094081213606565
aa(lp236
F120.31920722162604
aF31.104151152048523
aa(lp237
F120.3347664003723
aF31.107374592859905
aa(lp238
F120.34152816145554
aF31.118611224338586
aa(lp239
F120.341220436395
aF31.125000486670796
aa(lp240
F120.33724382371696
aF31.137145450480755
aa(lp241
F120.33230706622506
aF31.150278476974236
aa(lp242
F120.31897582866007
aF31.156851808474322
aa(lp243
F120.29361644293951
aF31.153539625585694
aa(lp244
F120.27353860088577
aF31.148867150848787
aa(lp245
F120.26020819639511
aF31.137268615911342
aa(lp246
F120.24624383924551
aF31.129352279160265
aa(lp247
F120.22475312668678
aF31.13114905455959
aa(lp248
F120.20251867917736
aF31.12664754013736
aa(lp249
F120.1959854232314
aF31.117200082057206
aaa.